Certificate:
    Data:
        Version: 3 (0x2)
        Serial Number: 1 (0x1)
        Signature Algorithm: sha256WithRSAEncryption
        Issuer: C=IT, ST=Tuscany, L=Pisa, O=GachaAndGames, OU=ServiceCA, CN=Service CA
        Validity
            Not Before: Dec  5 10:34:13 2024 GMT
            Not After : Dec  5 10:34:13 2027 GMT
        Subject: C=IT, ST=Tuscany, L=Pisa, O=GachaAndGames, OU=Develop, CN=service_auth
        Subject Public Key Info:
            Public Key Algorithm: rsaEncryption
                Public-Key: (4096 bit)
                Modulus:
                    00:cb:31:f3:f9:0a:fc:c4:08:01:92:8e:d9:61:b2:
                    ef:32:90:09:f0:a0:36:c8:e2:75:fe:a0:2b:47:cf:
                    55:f5:ee:30:f5:15:8d:6b:3e:06:74:a5:54:6b:8c:
                    57:de:c3:41:f3:6c:87:c4:3f:36:03:49:aa:24:45:
                    79:99:5b:ba:3a:d5:e5:c4:1a:59:0a:30:4b:90:13:
                    bb:87:4d:3d:f1:6d:6d:2a:1a:83:68:85:c4:a0:5e:
                    aa:eb:22:44:4c:07:a8:cc:51:0f:dc:66:2c:06:e1:
                    53:86:30:98:f7:7e:55:ef:47:fd:3b:a4:03:5a:62:
                    23:5d:69:36:14:01:82:99:3f:94:75:e0:c8:88:0e:
                    ef:7e:2b:11:a2:0e:c3:05:a9:78:a9:2d:10:70:d4:
                    a5:9e:9c:dc:c7:54:d6:ac:31:7e:e8:0b:30:73:6f:
                    8a:4d:77:05:d2:99:0e:78:61:3e:53:1c:b5:f7:29:
                    5e:c5:6a:d1:dc:7a:c1:3e:69:9b:f5:a4:00:b2:48:
                    b5:62:0f:7f:69:ad:29:93:46:14:28:69:71:73:0e:
                    ed:ae:81:e2:b5:3c:ec:57:7f:d4:8e:d6:e0:7b:2d:
                    1a:41:b7:21:21:6b:9d:47:4f:b6:25:fd:b3:96:a6:
                    a1:4a:09:63:09:74:82:35:1e:f7:d9:a2:83:26:ac:
                    f7:39:db:eb:83:14:2f:0d:67:8a:06:d2:8b:bb:75:
                    92:47:32:02:1f:3f:0b:c2:c3:27:2a:04:db:31:68:
                    a5:37:42:df:81:8d:7b:8b:9e:83:7f:77:08:86:d8:
                    68:1c:ee:1a:cd:a9:0e:6f:67:b4:c3:54:6c:59:64:
                    4a:41:10:71:fe:65:71:0e:c4:4e:a8:b3:a1:ee:18:
                    fc:12:62:87:4c:4c:0d:a0:93:54:68:7e:4b:12:da:
                    f7:ad:d5:4c:d0:56:6a:0f:1d:43:f3:71:69:56:8b:
                    ee:2d:f2:c3:2b:b4:18:a7:16:ac:d3:12:22:da:be:
                    5a:42:c5:1b:bb:ce:13:e7:49:c0:c1:7b:cc:53:e6:
                    cf:21:aa:2e:52:4b:21:90:f1:e9:2c:b0:b7:32:f4:
                    d8:85:d1:c2:d4:93:ff:98:fb:a1:4c:9f:00:06:b3:
                    82:62:b2:14:b2:18:4b:06:0b:b8:90:1a:26:66:c0:
                    85:67:c3:47:d9:f3:f2:52:45:8c:02:a2:c7:1e:73:
                    d4:e0:66:f2:57:66:2b:cb:d7:83:6b:62:f3:2e:52:
                    5d:d7:51:75:ab:bc:a9:66:36:f9:89:57:0a:ec:62:
                    69:fe:fb:38:42:30:03:45:02:8b:73:9f:92:0a:b4:
                    e4:25:3e:65:17:5d:a8:9b:60:8a:f9:12:38:4c:c8:
                    5e:55:39
                Exponent: 65537 (0x10001)
        X509v3 extensions:
            X509v3 Basic Constraints: 
                CA:FALSE
            X509v3 Key Usage: 
                Digital Signature, Key Encipherment
            X509v3 Subject Alternative Name: 
                DNS:service_auth, DNS:localhost
            X509v3 Subject Key Identifier: 
                00:18:3E:6D:5B:9D:55:2C:F5:A2:1F:A0:4A:1C:98:D2:7F:EF:A5:F1
            X509v3 Authority Key Identifier: 
                0E:82:7D:58:99:9F:84:F3:42:F2:33:0B:AC:A2:1F:F3:2F:40:EF:5B
    Signature Algorithm: sha256WithRSAEncryption
    Signature Value:
        a7:7d:61:63:f8:c4:ee:f6:df:31:f5:72:43:d8:ee:ee:bc:d2:
        aa:b9:29:ca:7e:57:78:1f:2d:ca:79:8f:64:f9:d5:85:f8:a9:
        e1:34:ef:b3:33:9e:3f:1f:e1:18:d1:5a:86:8e:94:1d:70:7c:
        44:7e:c2:3f:26:66:01:75:61:54:43:76:6c:c6:02:df:da:84:
        e7:46:04:50:0c:a4:11:10:01:d4:38:ee:19:03:c6:f7:74:c6:
        af:5c:c0:7b:fc:e4:d7:c1:65:68:89:f3:7c:52:c4:e6:a7:b8:
        28:c1:fb:df:bd:d2:aa:6f:3b:8c:1f:c7:4d:69:e1:85:7f:d6:
        28:cf:d5:f8:8b:18:78:41:c8:d0:15:9f:88:06:c6:38:79:25:
        9d:ed:59:42:48:20:dd:68:fc:66:c1:1c:b9:82:04:f8:31:be:
        80:a8:16:b4:f9:78:7a:d8:e8:76:4e:e4:9b:ee:9f:18:2b:fc:
        8a:61:49:3f:fe:6c:32:94:42:60:e1:c7:7c:5d:3c:1b:bb:a5:
        25:bf:e5:ca:9b:09:37:86:13:b3:3d:5a:7d:c5:2d:f2:e2:dc:
        69:47:04:af:2c:1e:bf:f7:82:1c:93:94:e2:b5:fc:63:ce:5f:
        ad:c2:62:f1:b8:38:71:d6:95:20:51:0d:d7:90:fe:af:2d:bb:
        1e:6e:d7:e1:82:e9:e4:58:ea:b7:0b:5c:75:03:e4:3f:41:29:
        53:8c:4f:08:87:8c:f5:6d:20:27:d0:d6:48:98:19:bc:9c:d9:
        95:69:41:5d:47:cf:7c:da:62:83:36:ac:19:7c:0c:a2:57:3f:
        15:6d:5a:7a:f7:ac:55:d9:18:99:30:ca:46:ab:8f:9a:75:e5:
        ca:e5:38:5d:bf:91:26:85:a2:17:bb:cd:f9:81:d8:cf:47:cc:
        43:5d:ca:72:63:37:7b:66:79:99:6f:1f:14:4d:05:10:28:fe:
        04:9a:9e:e4:f3:43:3c:2c:75:1e:e0:4b:bb:29:00:c5:9d:34:
        e6:7b:8f:83:4b:13:43:70:17:af:74:cc:52:63:ed:e2:51:23:
        d0:ad:c6:03:fb:2a:89:69:6b:09:13:52:3e:29:3d:60:70:8a:
        98:cb:13:4c:b6:ce:dd:34:d4:f8:66:aa:d7:69:df:5f:b9:6a:
        05:18:1b:54:51:e6:72:53:1c:42:52:c0:4b:47:fd:35:da:1a:
        4f:c0:e5:7d:85:69:f0:d9:d9:d6:d5:ec:10:a8:26:65:01:f0:
        a9:61:77:1a:51:62:58:2d:81:66:55:01:99:28:0f:0d:70:a0:
        2a:24:c2:73:e8:1b:32:8e:1a:0e:fc:63:54:a2:9c:63:d0:ac:
        3a:fd:b1:0f:2b:55:de:41
-----BEGIN CERTIFICATE-----
MIIF1zCCA7+gAwIBAgIBATANBgkqhkiG9w0BAQsFADBvMQswCQYDVQQGEwJJVDEQ
MA4GA1UECAwHVHVzY2FueTENMAsGA1UEBwwEUGlzYTEWMBQGA1UECgwNR2FjaGFB
bmRHYW1lczESMBAGA1UECwwJU2VydmljZUNBMRMwEQYDVQQDDApTZXJ2aWNlIENB
MB4XDTI0MTIwNTEwMzQxM1oXDTI3MTIwNTEwMzQxM1owbzELMAkGA1UEBhMCSVQx
EDAOBgNVBAgMB1R1c2NhbnkxDTALBgNVBAcMBFBpc2ExFjAUBgNVBAoMDUdhY2hh
QW5kR2FtZXMxEDAOBgNVBAsMB0RldmVsb3AxFTATBgNVBAMMDHNlcnZpY2VfYXV0
aDCCAiIwDQYJKoZIhvcNAQEBBQADggIPADCCAgoCggIBAMsx8/kK/MQIAZKO2WGy
7zKQCfCgNsjidf6gK0fPVfXuMPUVjWs+BnSlVGuMV97DQfNsh8Q/NgNJqiRFeZlb
ujrV5cQaWQowS5ATu4dNPfFtbSoag2iFxKBequsiREwHqMxRD9xmLAbhU4YwmPd+
Ve9H/TukA1piI11pNhQBgpk/lHXgyIgO734rEaIOwwWpeKktEHDUpZ6c3MdU1qwx
fugLMHNvik13BdKZDnhhPlMctfcpXsVq0dx6wT5pm/WkALJItWIPf2mtKZNGFChp
cXMO7a6B4rU87Fd/1I7W4HstGkG3ISFrnUdPtiX9s5amoUoJYwl0gjUe99migyas
9znb64MULw1nigbSi7t1kkcyAh8/C8LDJyoE2zFopTdC34GNe4ueg393CIbYaBzu
Gs2pDm9ntMNUbFlkSkEQcf5lcQ7ETqizoe4Y/BJih0xMDaCTVGh+SxLa963VTNBW
ag8dQ/NxaVaL7i3ywyu0GKcWrNMSItq+WkLFG7vOE+dJwMF7zFPmzyGqLlJLIZDx
6SywtzL02IXRwtST/5j7oUyfAAazgmKyFLIYSwYLuJAaJmbAhWfDR9nz8lJFjAKi
xx5z1OBm8ldmK8vXg2ti8y5SXddRdau8qWY2+YlXCuxiaf77OEIwA0UCi3Ofkgq0
5CU+ZRddqJtgivkSOEzIXlU5AgMBAAGjfjB8MAkGA1UdEwQCMAAwCwYDVR0PBAQD
AgWgMCIGA1UdEQQbMBmCDHNlcnZpY2VfYXV0aIIJbG9jYWxob3N0MB0GA1UdDgQW
BBQAGD5tW51VLPWiH6BKHJjSf++l8TAfBgNVHSMEGDAWgBQOgn1YmZ+E80LyMwus
oh/zL0DvWzANBgkqhkiG9w0BAQsFAAOCAgEAp31hY/jE7vbfMfVyQ9ju7rzSqrkp
yn5XeB8tynmPZPnVhfip4TTvszOePx/hGNFaho6UHXB8RH7CPyZmAXVhVEN2bMYC
39qE50YEUAykERAB1DjuGQPG93TGr1zAe/zk18FlaInzfFLE5qe4KMH7373Sqm87
jB/HTWnhhX/WKM/V+IsYeEHI0BWfiAbGOHklne1ZQkgg3Wj8ZsEcuYIE+DG+gKgW
tPl4etjodk7km+6fGCv8imFJP/5sMpRCYOHHfF08G7ulJb/lypsJN4YTsz1afcUt
8uLcaUcErywev/eCHJOU4rX8Y85frcJi8bg4cdaVIFEN15D+ry27Hm7X4YLp5Fjq
twtcdQPkP0EpU4xPCIeM9W0gJ9DWSJgZvJzZlWlBXUfPfNpigzasGXwMolc/FW1a
evesVdkYmTDKRquPmnXlyuU4Xb+RJoWiF7vN+YHYz0fMQ13KcmM3e2Z5mW8fFE0F
ECj+BJqe5PNDPCx1HuBLuykAxZ005nuPg0sTQ3AXr3TMUmPt4lEj0K3GA/sqiWlr
CRNSPik9YHCKmMsTTLbO3TTU+Gaq12nfX7lqBRgbVFHmclMcQlLAS0f9NdoaT8Dl
fYVp8NnZ1tXsEKgmZQHwqWF3GlFiWC2BZlUBmSgPDXCgKiTCc+gbMo4aDvxjVKKc
Y9CsOv2xDytV3kE=
-----END CERTIFICATE-----
