Certificate:
    Data:
        Version: 3 (0x2)
        Serial Number: 1 (0x1)
        Signature Algorithm: sha256WithRSAEncryption
        Issuer: C=IT, ST=Tuscany, L=Pisa, O=GachaAndGames, OU=ServiceCA, CN=Service CA
        Validity
            Not Before: Dec  4 16:36:15 2024 GMT
            Not After : Dec  4 16:36:15 2027 GMT
        Subject: C=IT, ST=Tuscany, L=Pisa, O=GachaAndGames, OU=Develop, CN=auth
        Subject Public Key Info:
            Public Key Algorithm: rsaEncryption
                Public-Key: (4096 bit)
                Modulus:
                    00:cb:07:c2:21:b9:27:74:66:4f:9d:0a:f2:18:d8:
                    03:90:d1:09:81:08:4e:08:9c:00:81:84:28:58:4d:
                    b0:91:0d:98:d4:a2:a5:6a:10:77:9e:69:07:e5:e5:
                    cf:3c:b3:88:30:82:26:37:2d:79:2a:13:83:73:7a:
                    75:36:2d:76:7f:35:26:e8:33:eb:d9:c8:26:84:eb:
                    5d:fd:ac:56:80:1e:98:0d:b1:b1:b2:c4:3b:42:4a:
                    8f:e6:92:62:ae:fd:14:b0:2f:63:ca:b2:c0:81:8a:
                    8a:35:2e:e2:fd:b2:26:45:ce:f2:bf:87:1f:05:1f:
                    9f:84:a1:98:3a:b1:4b:0f:52:39:a4:6e:07:e7:da:
                    e0:53:ca:70:8d:20:87:56:5e:77:02:11:b1:d5:1b:
                    85:ed:1b:fc:ad:26:c2:a4:44:c2:a4:d1:b6:06:e9:
                    74:34:77:30:49:8b:16:24:31:2f:46:07:78:05:f7:
                    42:17:ec:05:37:ad:52:4a:e0:c9:9c:0f:ee:11:96:
                    41:ea:40:3e:82:84:65:2a:ea:b0:a8:ea:75:35:1d:
                    b9:38:8f:29:b6:c8:33:fc:28:fa:19:61:5c:de:11:
                    f2:04:be:c3:71:f7:df:ce:6a:3f:9f:7d:ca:58:fc:
                    07:ac:14:ae:9a:27:b1:bf:3c:c8:5f:99:44:6e:68:
                    f5:7a:df:4e:72:0d:15:b6:46:90:e1:9e:99:48:fd:
                    e6:c4:36:ed:37:47:fb:99:80:30:dd:c7:bb:58:ff:
                    29:cd:93:ea:c8:d4:8e:8a:bb:77:bd:55:11:90:65:
                    e5:b2:5f:67:b1:e1:4e:cb:25:9e:8b:88:37:5c:37:
                    af:76:dc:5f:15:1d:17:88:3a:ee:eb:62:dd:12:37:
                    59:28:74:e4:c8:00:5b:d2:7c:19:58:0b:dd:19:fe:
                    1b:8f:e1:cc:fa:d5:38:51:c7:3a:e0:98:16:9e:79:
                    52:e2:9e:67:5e:48:e9:18:c3:7c:cb:00:a4:16:f5:
                    73:35:4e:d7:17:e8:bc:67:55:3c:c2:f8:a0:30:e2:
                    a4:e0:9d:8e:27:74:47:54:ba:88:a1:e8:cd:8e:68:
                    06:11:b9:15:ba:94:75:d2:86:47:9b:0a:be:99:aa:
                    d1:f0:8f:a6:f1:a2:b1:6a:3d:e8:37:f0:a8:ac:b6:
                    9c:52:c7:6c:e1:22:fe:f2:c9:9e:ce:27:10:91:34:
                    51:fd:d1:7b:23:3e:bd:87:a0:1d:f9:88:a5:85:06:
                    15:61:4f:51:8d:60:95:1b:56:47:fe:15:7b:b4:e5:
                    ef:81:75:eb:f9:bd:2a:7a:d2:af:92:21:33:55:0d:
                    74:3c:5b:1c:ae:36:3c:44:4e:b0:eb:11:73:b1:e5:
                    f7:1d:55
                Exponent: 65537 (0x10001)
        X509v3 extensions:
            X509v3 Basic Constraints: 
                CA:FALSE
            X509v3 Key Usage: 
                Digital Signature, Key Encipherment
            X509v3 Subject Alternative Name: 
                DNS:localhost
            X509v3 Subject Key Identifier: 
                1B:C2:32:44:A1:CB:3F:26:75:18:F9:16:AA:1E:78:AB:32:B8:AB:BD
            X509v3 Authority Key Identifier: 
                0E:82:7D:58:99:9F:84:F3:42:F2:33:0B:AC:A2:1F:F3:2F:40:EF:5B
    Signature Algorithm: sha256WithRSAEncryption
    Signature Value:
        af:57:09:06:66:80:8f:57:38:95:28:c9:0d:f2:34:9a:19:cb:
        d8:6d:c3:39:04:05:ce:97:e2:47:80:63:be:c0:76:42:20:7f:
        88:5f:61:dd:5e:69:87:43:e5:c7:fd:ba:57:4b:d3:c1:7a:9b:
        08:15:66:b9:3a:2a:65:48:a2:15:5d:4f:83:95:61:80:1e:20:
        ab:f2:51:11:b3:96:41:2f:1c:7b:11:08:76:6a:4e:01:c7:69:
        ba:d1:fc:a0:c7:d8:5f:53:a2:37:ef:4b:fb:55:18:9e:d3:f6:
        1b:c2:91:87:b8:10:c3:24:6d:7f:01:04:ed:0c:8c:64:77:f6:
        32:64:7b:55:92:93:b5:af:7d:0f:4e:70:9a:1e:21:79:47:5c:
        9c:34:e3:85:6c:3c:14:c7:3b:0b:3f:6f:cc:e8:4a:d8:ed:60:
        6d:c3:9c:b4:c6:2f:18:19:8b:f1:c0:f1:86:49:a4:da:ca:44:
        a5:d2:c3:78:65:3a:81:a7:cd:d9:96:ad:f7:c0:48:d6:1a:94:
        4f:ec:90:ef:32:5c:b9:a8:a7:9e:57:94:d9:27:6f:6c:5d:3a:
        17:e2:37:ec:6e:81:42:23:5f:40:7c:88:5f:86:de:50:3b:4e:
        d9:cd:f9:7e:ec:94:d2:0c:f7:00:5d:e6:6d:31:f0:1b:08:0a:
        5b:de:b9:7e:9a:8c:6d:9b:a0:d7:42:2c:12:3a:8d:df:80:09:
        a4:4c:24:00:af:63:dc:1c:45:f8:55:9a:2a:5e:4e:80:96:59:
        47:e5:35:ad:88:e6:0e:81:9d:af:5f:2f:40:a5:cf:cd:ad:01:
        a0:90:21:70:3e:c0:12:90:be:d1:e3:c3:d9:60:1e:73:95:fd:
        8a:7d:ec:6d:80:c3:89:08:0f:9a:37:7d:62:73:5b:c3:b3:24:
        27:32:6f:22:ab:8b:7a:98:18:6a:38:fc:a9:14:de:2e:d7:4a:
        fa:7a:d6:97:49:15:42:1c:b5:e2:4e:83:db:a4:03:d8:71:d4:
        59:86:1f:c1:1b:9e:64:82:7a:8b:25:bf:21:c3:8f:1c:b4:e8:
        83:a6:0f:43:40:56:b3:91:3b:36:78:ae:9d:2b:e1:a3:bb:c3:
        95:62:c8:06:a0:cb:c7:4d:c2:49:2c:b7:d3:67:c4:ad:86:4e:
        be:00:ac:89:20:72:65:54:4d:ba:68:ef:7d:93:62:92:11:7e:
        bf:b6:ac:41:2f:8a:a8:16:cd:0b:8b:c7:ff:9b:eb:1e:41:97:
        79:49:88:c5:3b:75:a4:28:44:71:4d:77:35:65:fd:63:42:2c:
        e0:77:4b:43:eb:fc:0e:85:a8:c9:40:ca:25:f0:a5:28:d7:7a:
        6f:96:c0:b7:fd:10:1a:74
-----BEGIN CERTIFICATE-----
MIIFwTCCA6mgAwIBAgIBATANBgkqhkiG9w0BAQsFADBvMQswCQYDVQQGEwJJVDEQ
MA4GA1UECAwHVHVzY2FueTENMAsGA1UEBwwEUGlzYTEWMBQGA1UECgwNR2FjaGFB
bmRHYW1lczESMBAGA1UECwwJU2VydmljZUNBMRMwEQYDVQQDDApTZXJ2aWNlIENB
MB4XDTI0MTIwNDE2MzYxNVoXDTI3MTIwNDE2MzYxNVowZzELMAkGA1UEBhMCSVQx
EDAOBgNVBAgMB1R1c2NhbnkxDTALBgNVBAcMBFBpc2ExFjAUBgNVBAoMDUdhY2hh
QW5kR2FtZXMxEDAOBgNVBAsMB0RldmVsb3AxDTALBgNVBAMMBGF1dGgwggIiMA0G
CSqGSIb3DQEBAQUAA4ICDwAwggIKAoICAQDLB8IhuSd0Zk+dCvIY2AOQ0QmBCE4I
nACBhChYTbCRDZjUoqVqEHeeaQfl5c88s4gwgiY3LXkqE4NzenU2LXZ/NSboM+vZ
yCaE6139rFaAHpgNsbGyxDtCSo/mkmKu/RSwL2PKssCBioo1LuL9siZFzvK/hx8F
H5+EoZg6sUsPUjmkbgfn2uBTynCNIIdWXncCEbHVG4XtG/ytJsKkRMKk0bYG6XQ0
dzBJixYkMS9GB3gF90IX7AU3rVJK4MmcD+4RlkHqQD6ChGUq6rCo6nU1Hbk4jym2
yDP8KPoZYVzeEfIEvsNx99/Oaj+ffcpY/AesFK6aJ7G/PMhfmURuaPV6305yDRW2
RpDhnplI/ebENu03R/uZgDDdx7tY/ynNk+rI1I6Ku3e9VRGQZeWyX2ex4U7LJZ6L
iDdcN6923F8VHReIOu7rYt0SN1kodOTIAFvSfBlYC90Z/huP4cz61ThRxzrgmBae
eVLinmdeSOkYw3zLAKQW9XM1TtcX6LxnVTzC+KAw4qTgnY4ndEdUuoih6M2OaAYR
uRW6lHXShkebCr6ZqtHwj6bxorFqPeg38KistpxSx2zhIv7yyZ7OJxCRNFH90Xsj
Pr2HoB35iKWFBhVhT1GNYJUbVkf+FXu05e+Bdev5vSp60q+SITNVDXQ8WxyuNjxE
TrDrEXOx5fcdVQIDAQABo3AwbjAJBgNVHRMEAjAAMAsGA1UdDwQEAwIFoDAUBgNV
HREEDTALgglsb2NhbGhvc3QwHQYDVR0OBBYEFBvCMkShyz8mdRj5FqoeeKsyuKu9
MB8GA1UdIwQYMBaAFA6CfViZn4TzQvIzC6yiH/MvQO9bMA0GCSqGSIb3DQEBCwUA
A4ICAQCvVwkGZoCPVziVKMkN8jSaGcvYbcM5BAXOl+JHgGO+wHZCIH+IX2HdXmmH
Q+XH/bpXS9PBepsIFWa5OiplSKIVXU+DlWGAHiCr8lERs5ZBLxx7EQh2ak4Bx2m6
0fygx9hfU6I370v7VRie0/YbwpGHuBDDJG1/AQTtDIxkd/YyZHtVkpO1r30PTnCa
HiF5R1ycNOOFbDwUxzsLP2/M6ErY7WBtw5y0xi8YGYvxwPGGSaTaykSl0sN4ZTqB
p83Zlq33wEjWGpRP7JDvMly5qKeeV5TZJ29sXToX4jfsboFCI19AfIhfht5QO07Z
zfl+7JTSDPcAXeZtMfAbCApb3rl+moxtm6DXQiwSOo3fgAmkTCQAr2PcHEX4VZoq
Xk6AlllH5TWtiOYOgZ2vXy9Apc/NrQGgkCFwPsASkL7R48PZYB5zlf2KfextgMOJ
CA+aN31ic1vDsyQnMm8iq4t6mBhqOPypFN4u10r6etaXSRVCHLXiToPbpAPYcdRZ
hh/BG55kgnqLJb8hw48ctOiDpg9DQFazkTs2eK6dK+Gju8OVYsgGoMvHTcJJLLfT
Z8Sthk6+AKyJIHJlVE26aO99k2KSEX6/tqxBL4qoFs0Li8f/m+seQZd5SYjFO3Wk
KERxTXc1Zf1jQizgd0tD6/wOhajJQMol8KUo13pvlsC3/RAadA==
-----END CERTIFICATE-----
