Certificate:
    Data:
        Version: 3 (0x2)
        Serial Number: 3 (0x3)
        Signature Algorithm: sha256WithRSAEncryption
        Issuer: C=IT, ST=Tuscany, L=Pisa, O=GachaAndGames, OU=ServiceCA, CN=Service CA
        Validity
            Not Before: Dec  5 11:20:57 2024 GMT
            Not After : Dec  5 11:20:57 2027 GMT
        Subject: C=IT, ST=Tuscany, L=Pisa, O=GachaAndGames, OU=Develop, CN=service_auction
        Subject Public Key Info:
            Public Key Algorithm: rsaEncryption
                Public-Key: (4096 bit)
                Modulus:
                    00:ab:bf:65:65:c1:9a:39:e1:40:a4:a2:a3:c9:35:
                    92:45:b6:8b:39:ff:03:9f:21:5e:70:7c:06:af:cc:
                    7e:43:e8:54:24:3a:96:20:0d:91:55:74:fb:ad:95:
                    58:18:03:f1:b6:3b:00:d1:83:7d:4e:98:db:bf:80:
                    d7:3a:8f:df:fa:f9:8a:72:e1:01:a1:d2:f2:82:5b:
                    62:ef:2b:7c:24:d4:6e:41:be:11:e4:db:1c:13:7c:
                    e1:ae:3b:2f:a0:d6:22:9e:37:fa:c3:74:eb:82:2b:
                    e0:f2:a0:e8:19:e0:67:91:e4:07:ab:c9:c1:96:3f:
                    87:32:0b:f8:5e:18:60:7c:7f:63:7b:c3:3c:70:6e:
                    86:c7:41:66:0c:49:49:76:fd:c2:69:2b:0d:dd:86:
                    09:70:ec:e6:94:80:fa:84:b1:60:f5:a0:f3:73:65:
                    29:06:8b:99:48:9a:4e:44:9f:9e:43:11:6c:cc:e1:
                    9c:4c:41:0d:48:d4:2a:16:e2:1a:9b:ca:46:77:e8:
                    fe:67:d3:51:07:04:4d:69:e1:c8:98:b2:30:f1:92:
                    92:48:7f:e6:b0:b2:2e:ae:f5:22:6e:85:52:b7:93:
                    0d:d7:b0:25:71:02:2a:88:24:54:0f:d7:be:45:74:
                    0d:cb:e4:44:6d:27:c4:67:8d:3b:ee:1b:49:b8:95:
                    ca:9f:91:d6:75:d5:c8:d0:5c:e5:6f:96:e2:f4:07:
                    dc:d6:2b:db:e8:d0:cb:87:40:e0:ac:d3:82:12:0d:
                    47:4b:f3:b6:fe:13:90:0a:17:96:c2:3e:3d:60:90:
                    2c:ec:44:13:e8:b3:2b:cb:93:21:e8:38:a6:04:09:
                    17:8d:44:27:3d:c4:78:99:18:17:35:60:6b:41:8d:
                    2e:5a:3b:0b:5b:fc:35:3d:b0:9e:45:e0:d4:4f:f1:
                    79:ea:a9:d9:f8:fc:9c:85:2d:ed:7c:35:09:63:0e:
                    5a:16:74:f3:84:94:ae:0d:e4:24:0f:b6:15:3f:e9:
                    78:c3:88:01:4e:51:d0:59:4c:c8:b8:39:72:41:b6:
                    1f:6a:82:e4:e5:d1:06:64:f8:07:2a:72:64:c4:25:
                    cd:7c:4f:10:c4:94:8c:a8:69:14:13:02:7f:04:87:
                    75:09:42:8d:79:33:52:43:dc:27:02:f7:d9:66:af:
                    d2:42:8b:ba:bd:16:43:e6:71:ef:b5:26:fc:da:ae:
                    81:ba:b5:e5:2d:76:0e:d1:5f:c2:cb:c3:23:c6:5d:
                    45:bf:18:28:80:82:99:44:b2:fd:66:75:bf:b3:5f:
                    00:e0:60:9b:33:ca:63:08:4c:ec:be:f9:61:bf:70:
                    30:a4:17:a4:3c:a6:ef:22:a9:df:20:b5:fc:c1:e6:
                    79:e3:1b
                Exponent: 65537 (0x10001)
        X509v3 extensions:
            X509v3 Basic Constraints: 
                CA:FALSE
            X509v3 Key Usage: 
                Digital Signature, Key Encipherment
            X509v3 Subject Alternative Name: 
                DNS:service_auction, DNS:localhost
            X509v3 Subject Key Identifier: 
                09:69:DD:2D:3A:46:DA:6D:EA:10:5C:DC:87:FF:D9:35:BE:9D:04:13
            X509v3 Authority Key Identifier: 
                0E:82:7D:58:99:9F:84:F3:42:F2:33:0B:AC:A2:1F:F3:2F:40:EF:5B
    Signature Algorithm: sha256WithRSAEncryption
    Signature Value:
        27:65:4d:78:4f:b2:ce:64:36:d4:08:cf:74:12:56:19:da:da:
        67:8a:31:43:ac:c5:8b:be:ec:f1:2a:33:a7:6e:25:1e:06:2d:
        94:65:6c:45:11:7c:be:6a:db:e7:22:72:a6:38:c3:d1:8d:81:
        68:7a:d5:73:fc:24:ed:9d:34:07:ae:be:36:8e:70:da:0e:a3:
        3a:10:37:ba:21:e1:54:84:b8:02:1d:f9:13:18:ae:9d:8d:3e:
        eb:5e:2e:d1:6f:b6:64:39:5a:03:e5:e4:bb:4c:c5:3a:54:55:
        b3:44:65:9e:5b:81:81:06:c9:0a:d8:2d:36:e4:cd:64:a0:69:
        5d:01:ae:bb:90:1e:05:bc:cd:3a:fb:b3:67:00:a8:d2:be:6a:
        8d:54:f3:a7:56:fe:5f:06:dc:5a:57:61:b8:56:07:64:52:1c:
        89:e4:21:e8:a3:17:7d:37:77:bf:e5:f6:83:25:64:3f:6b:ef:
        92:65:47:f9:7c:b3:83:5d:b0:ae:3e:48:52:fe:ae:25:23:3b:
        3a:a0:d5:6b:06:32:fa:03:c2:66:ec:29:49:64:28:49:73:a4:
        c1:33:79:db:51:b2:82:d2:a0:31:7d:06:e7:13:26:2d:59:4b:
        ed:1e:91:32:d3:ce:2a:8d:2f:3b:a6:d1:2b:ed:94:b7:74:25:
        1e:6f:ae:83:44:31:2e:32:32:c3:2a:c4:d8:55:28:02:5b:cc:
        80:c1:f9:7b:e6:d4:d8:7c:61:0f:f8:95:96:74:a2:d4:b1:5d:
        28:86:b7:87:59:bf:d9:4f:da:e3:46:e2:4f:5d:3a:ef:73:5e:
        43:b6:c8:30:21:89:3d:ec:e0:48:d2:ba:cd:3f:a0:b8:37:bb:
        18:b1:c4:5f:55:61:6d:79:6b:1e:d2:da:c5:b8:3b:a8:ea:51:
        d1:d5:f6:96:f9:86:68:c8:70:fd:d3:bc:74:22:d0:9b:98:3b:
        3e:11:aa:9b:47:65:f8:06:bf:08:29:9a:6e:55:14:f0:56:b8:
        c7:cc:e3:0b:b0:97:61:1f:42:62:df:0e:40:60:04:50:75:34:
        fc:c3:b6:0b:3a:8f:cd:08:08:42:3f:9b:9d:e5:70:1e:43:68:
        ea:a5:a6:0f:c9:9b:5d:dc:59:44:51:53:b9:53:89:36:08:c7:
        e2:25:8f:5e:28:b4:bb:48:49:42:97:62:06:90:f3:c9:b4:9e:
        c5:e0:82:4b:64:92:a4:7a:a7:1a:96:13:25:9b:11:a1:b4:2b:
        56:8c:4e:71:0f:8e:82:a1:67:52:8f:24:09:e2:7b:ab:ed:1c:
        ea:ff:26:79:cf:52:63:8c:8b:6c:ff:5d:50:0a:18:89:9c:1a:
        48:46:6b:7e:b2:c6:df:33
-----BEGIN CERTIFICATE-----
MIIF3jCCA8agAwIBAgIBAzANBgkqhkiG9w0BAQsFADBvMQswCQYDVQQGEwJJVDEQ
MA4GA1UECAwHVHVzY2FueTENMAsGA1UEBwwEUGlzYTEWMBQGA1UECgwNR2FjaGFB
bmRHYW1lczESMBAGA1UECwwJU2VydmljZUNBMRMwEQYDVQQDDApTZXJ2aWNlIENB
MB4XDTI0MTIwNTExMjA1N1oXDTI3MTIwNTExMjA1N1owcjELMAkGA1UEBhMCSVQx
EDAOBgNVBAgMB1R1c2NhbnkxDTALBgNVBAcMBFBpc2ExFjAUBgNVBAoMDUdhY2hh
QW5kR2FtZXMxEDAOBgNVBAsMB0RldmVsb3AxGDAWBgNVBAMMD3NlcnZpY2VfYXVj
dGlvbjCCAiIwDQYJKoZIhvcNAQEBBQADggIPADCCAgoCggIBAKu/ZWXBmjnhQKSi
o8k1kkW2izn/A58hXnB8Bq/MfkPoVCQ6liANkVV0+62VWBgD8bY7ANGDfU6Y27+A
1zqP3/r5inLhAaHS8oJbYu8rfCTUbkG+EeTbHBN84a47L6DWIp43+sN064Ir4PKg
6BngZ5HkB6vJwZY/hzIL+F4YYHx/Y3vDPHBuhsdBZgxJSXb9wmkrDd2GCXDs5pSA
+oSxYPWg83NlKQaLmUiaTkSfnkMRbMzhnExBDUjUKhbiGpvKRnfo/mfTUQcETWnh
yJiyMPGSkkh/5rCyLq71Im6FUreTDdewJXECKogkVA/XvkV0DcvkRG0nxGeNO+4b
SbiVyp+R1nXVyNBc5W+W4vQH3NYr2+jQy4dA4KzTghINR0vztv4TkAoXlsI+PWCQ
LOxEE+izK8uTIeg4pgQJF41EJz3EeJkYFzVga0GNLlo7C1v8NT2wnkXg1E/xeeqp
2fj8nIUt7Xw1CWMOWhZ084SUrg3kJA+2FT/peMOIAU5R0FlMyLg5ckG2H2qC5OXR
BmT4BypyZMQlzXxPEMSUjKhpFBMCfwSHdQlCjXkzUkPcJwL32Wav0kKLur0WQ+Zx
77Um/Nqugbq15S12DtFfwsvDI8ZdRb8YKICCmUSy/WZ1v7NfAOBgmzPKYwhM7L75
Yb9wMKQXpDym7yKp3yC1/MHmeeMbAgMBAAGjgYEwfzAJBgNVHRMEAjAAMAsGA1Ud
DwQEAwIFoDAlBgNVHREEHjAcgg9zZXJ2aWNlX2F1Y3Rpb26CCWxvY2FsaG9zdDAd
BgNVHQ4EFgQUCWndLTpG2m3qEFzch//ZNb6dBBMwHwYDVR0jBBgwFoAUDoJ9WJmf
hPNC8jMLrKIf8y9A71swDQYJKoZIhvcNAQELBQADggIBACdlTXhPss5kNtQIz3QS
Vhna2meKMUOsxYu+7PEqM6duJR4GLZRlbEURfL5q2+cicqY4w9GNgWh61XP8JO2d
NAeuvjaOcNoOozoQN7oh4VSEuAId+RMYrp2NPuteLtFvtmQ5WgPl5LtMxTpUVbNE
ZZ5bgYEGyQrYLTbkzWSgaV0BrruQHgW8zTr7s2cAqNK+ao1U86dW/l8G3FpXYbhW
B2RSHInkIeijF303d7/l9oMlZD9r75JlR/l8s4NdsK4+SFL+riUjOzqg1WsGMvoD
wmbsKUlkKElzpMEzedtRsoLSoDF9BucTJi1ZS+0ekTLTziqNLzum0SvtlLd0JR5v
roNEMS4yMsMqxNhVKAJbzIDB+Xvm1Nh8YQ/4lZZ0otSxXSiGt4dZv9lP2uNG4k9d
Ou9zXkO2yDAhiT3s4EjSus0/oLg3uxixxF9VYW15ax7S2sW4O6jqUdHV9pb5hmjI
cP3TvHQi0JuYOz4RqptHZfgGvwgpmm5VFPBWuMfM4wuwl2EfQmLfDkBgBFB1NPzD
tgs6j80ICEI/m53lcB5DaOqlpg/Jm13cWURRU7lTiTYIx+Ilj14otLtISUKXYgaQ
88m0nsXggktkkqR6pxqWEyWbEaG0K1aMTnEPjoKhZ1KPJAnie6vtHOr/JnnPUmOM
i2z/XVAKGImcGkhGa36yxt8z
-----END CERTIFICATE-----
