Certificate:
    Data:
        Version: 3 (0x2)
        Serial Number: 6 (0x6)
        Signature Algorithm: sha256WithRSAEncryption
        Issuer: C=IT, ST=Tuscany, L=Pisa, O=GachaAndGames, OU=ServiceCA, CN=Service CA
        Validity
            Not Before: Dec  5 11:22:52 2024 GMT
            Not After : Dec  5 11:22:52 2027 GMT
        Subject: C=IT, ST=Tuscany, L=Pisa, O=GachaAndGames, OU=Develop, CN=service_gacha
        Subject Public Key Info:
            Public Key Algorithm: rsaEncryption
                Public-Key: (4096 bit)
                Modulus:
                    00:b7:6d:46:6c:66:47:73:f8:b3:64:87:94:0c:27:
                    06:67:8b:ea:1f:7d:a3:b6:f0:26:1f:f9:48:d0:fa:
                    39:1b:d8:3d:9b:55:9b:23:b4:a4:c3:51:c7:60:52:
                    17:ee:4c:c8:e5:7e:2b:b1:a9:d5:37:0d:f5:86:2a:
                    bf:94:2f:f2:40:27:9e:3e:30:fe:e2:69:39:84:e0:
                    c5:57:d6:65:38:ca:0b:2b:3a:43:ab:c8:aa:ee:07:
                    e0:64:28:48:3f:ef:40:a2:1b:27:59:40:e5:42:63:
                    78:f4:6d:ad:57:91:bf:ef:b2:a2:bf:9a:1e:79:af:
                    0c:83:0a:03:47:29:67:53:da:9c:9c:23:bd:cb:c2:
                    37:50:07:a7:cd:a9:05:71:5d:74:06:4b:94:0e:76:
                    c2:47:da:fb:7c:45:3f:d4:15:d7:3c:c2:be:8a:86:
                    41:e4:d8:35:8a:09:0e:7f:ab:55:c7:3c:99:51:0a:
                    6c:98:f2:b8:ef:b7:55:6d:af:c4:72:4d:b8:d5:ef:
                    db:f2:d4:91:88:ad:52:0e:e2:6a:13:8c:7a:b6:1e:
                    09:10:25:56:c9:e4:76:d7:03:bc:98:e0:d3:e0:f1:
                    42:77:3b:b5:98:a6:d6:20:dd:7c:69:93:6f:dc:75:
                    62:a0:57:bd:20:ea:55:8f:33:ce:0b:65:c9:db:36:
                    45:71:3d:68:66:c7:f2:8e:1a:7a:30:1b:ff:97:05:
                    82:13:52:f3:b4:9b:1c:53:1e:53:60:ce:e1:21:4e:
                    ec:b8:65:42:d1:25:65:62:2b:ef:09:7f:67:32:59:
                    9a:50:de:cc:af:6f:48:a3:ba:bf:dc:26:e3:3a:01:
                    0f:44:50:9d:f9:e5:2e:c9:c8:14:4c:bf:bc:36:c5:
                    8a:6d:46:55:42:4e:7f:e3:e3:dc:56:39:ff:4e:9a:
                    62:a4:70:2f:56:79:b8:d0:f4:51:e7:0c:47:c4:f9:
                    76:7f:8b:01:92:cb:4d:6c:9e:0b:d5:46:6c:8c:31:
                    62:ce:f2:ad:b0:69:96:5f:d2:a6:ee:7d:4e:d0:bc:
                    32:1d:9a:f7:da:ce:86:66:13:73:81:dd:9e:c8:bb:
                    d4:d5:d1:e5:00:e8:ca:a1:ab:e2:c3:b5:2b:50:09:
                    08:46:67:9b:1a:ce:7b:99:10:69:a7:f9:61:6d:3f:
                    a3:c7:34:3d:29:93:69:04:a7:70:20:29:9b:a3:57:
                    a0:16:05:49:b2:a5:ca:98:28:e4:af:4e:e9:0a:c0:
                    9f:e6:df:31:f4:01:9e:3b:2d:51:6b:6a:e1:06:36:
                    c2:58:c9:c9:f2:08:21:b7:2f:03:bd:b3:2c:90:df:
                    83:a9:45:c2:7c:e1:66:1a:e4:1f:a5:d7:e1:5f:ed:
                    64:0d:35
                Exponent: 65537 (0x10001)
        X509v3 extensions:
            X509v3 Basic Constraints: 
                CA:FALSE
            X509v3 Key Usage: 
                Digital Signature, Key Encipherment
            X509v3 Subject Alternative Name: 
                DNS:service_gacha, DNS:localhost
            X509v3 Subject Key Identifier: 
                C7:BF:E2:63:82:E0:C3:E8:55:F7:FF:2B:84:A3:FF:EC:4B:9D:32:A5
            X509v3 Authority Key Identifier: 
                0E:82:7D:58:99:9F:84:F3:42:F2:33:0B:AC:A2:1F:F3:2F:40:EF:5B
    Signature Algorithm: sha256WithRSAEncryption
    Signature Value:
        15:fa:a4:7e:19:e5:14:28:b8:a2:f2:1f:46:8c:fe:a2:18:3d:
        c0:96:c8:b4:2b:f5:f7:6d:93:31:40:a1:5e:ed:72:6f:bd:00:
        d0:a2:3d:11:9a:ff:29:5b:fb:4e:bf:f6:df:00:9c:55:7e:67:
        71:80:8c:8c:ca:e9:23:e9:fe:08:6a:be:82:a8:98:ac:cc:af:
        92:25:0b:da:19:72:4b:d4:22:b3:a8:9a:db:46:3a:60:a9:1c:
        82:46:75:48:d6:e1:58:82:c1:4e:3f:7a:34:6f:89:5f:12:f0:
        c8:74:cb:03:1d:62:24:41:96:f6:34:b6:bd:0d:98:e0:0d:73:
        30:68:c2:bc:b2:65:5c:a3:6d:09:5f:b7:fc:56:fa:b6:f3:60:
        89:45:30:fd:c2:04:fe:0a:0f:0e:f7:c3:f5:0d:74:9d:8b:4f:
        92:b9:f6:a0:a8:06:6c:85:e9:60:a1:42:03:63:0c:2e:8d:2f:
        c2:6c:90:55:97:85:1f:aa:f4:cf:df:80:58:5c:48:00:8f:50:
        39:dd:41:a1:10:89:6e:d9:15:7e:39:7c:e0:5b:da:a0:bb:bc:
        2c:8c:8d:d9:f8:e5:ed:ac:78:bd:9f:5d:cd:60:f9:01:e7:d5:
        4f:e7:24:26:1a:bb:6a:66:83:dd:20:17:89:a3:ea:80:ac:a3:
        05:8b:8b:25:bf:05:2f:de:05:42:ed:2d:af:6e:76:d3:87:f6:
        f4:aa:06:f5:7b:9f:e6:7d:ba:8f:ec:1f:9e:b3:bc:f9:05:af:
        c7:af:93:71:8a:7b:92:37:ea:8a:36:e1:4f:e7:1b:a9:83:2e:
        07:d3:57:52:26:ff:cd:3b:51:4b:7e:70:cd:02:1d:dc:76:8e:
        ed:ac:bd:42:d0:62:a9:06:d3:00:fd:1a:c1:56:e8:d3:84:13:
        61:44:ca:ef:d9:d3:6d:9e:64:23:db:15:fe:09:45:8e:cf:96:
        0f:c2:2c:18:c4:1e:59:d0:eb:c2:dc:c4:6c:57:28:25:8d:50:
        05:91:d9:96:08:fd:7b:6f:e0:8a:a9:1b:a0:c5:b7:68:cf:60:
        41:54:bb:06:c7:82:77:cd:69:1f:13:94:09:9f:15:a8:a8:3e:
        f9:5c:01:bd:35:72:b4:57:1e:c6:b6:1f:aa:d7:ef:08:c0:08:
        0b:ee:da:0e:fc:a3:59:71:eb:c0:e2:9d:36:3b:15:66:63:c0:
        fe:d9:40:62:1d:ce:bc:9b:c3:e7:8a:12:51:9d:68:ee:b5:e7:
        44:e8:ec:ad:95:3d:bc:a2:76:82:4d:ee:d4:06:a5:4b:a9:5b:
        8e:88:f0:34:c4:e2:e2:9f:14:39:f6:e4:c8:2e:15:d4:dd:85:
        b3:33:1f:8e:f6:f7:34:8d
-----BEGIN CERTIFICATE-----
MIIF2TCCA8GgAwIBAgIBBjANBgkqhkiG9w0BAQsFADBvMQswCQYDVQQGEwJJVDEQ
MA4GA1UECAwHVHVzY2FueTENMAsGA1UEBwwEUGlzYTEWMBQGA1UECgwNR2FjaGFB
bmRHYW1lczESMBAGA1UECwwJU2VydmljZUNBMRMwEQYDVQQDDApTZXJ2aWNlIENB
MB4XDTI0MTIwNTExMjI1MloXDTI3MTIwNTExMjI1MlowcDELMAkGA1UEBhMCSVQx
EDAOBgNVBAgMB1R1c2NhbnkxDTALBgNVBAcMBFBpc2ExFjAUBgNVBAoMDUdhY2hh
QW5kR2FtZXMxEDAOBgNVBAsMB0RldmVsb3AxFjAUBgNVBAMMDXNlcnZpY2VfZ2Fj
aGEwggIiMA0GCSqGSIb3DQEBAQUAA4ICDwAwggIKAoICAQC3bUZsZkdz+LNkh5QM
JwZni+offaO28CYf+UjQ+jkb2D2bVZsjtKTDUcdgUhfuTMjlfiuxqdU3DfWGKr+U
L/JAJ54+MP7iaTmE4MVX1mU4ygsrOkOryKruB+BkKEg/70CiGydZQOVCY3j0ba1X
kb/vsqK/mh55rwyDCgNHKWdT2pycI73LwjdQB6fNqQVxXXQGS5QOdsJH2vt8RT/U
Fdc8wr6KhkHk2DWKCQ5/q1XHPJlRCmyY8rjvt1Vtr8RyTbjV79vy1JGIrVIO4moT
jHq2HgkQJVbJ5HbXA7yY4NPg8UJ3O7WYptYg3Xxpk2/cdWKgV70g6lWPM84LZcnb
NkVxPWhmx/KOGnowG/+XBYITUvO0mxxTHlNgzuEhTuy4ZULRJWViK+8Jf2cyWZpQ
3syvb0ijur/cJuM6AQ9EUJ355S7JyBRMv7w2xYptRlVCTn/j49xWOf9OmmKkcC9W
ebjQ9FHnDEfE+XZ/iwGSy01sngvVRmyMMWLO8q2waZZf0qbufU7QvDIdmvfazoZm
E3OB3Z7Iu9TV0eUA6Mqhq+LDtStQCQhGZ5saznuZEGmn+WFtP6PHND0pk2kEp3Ag
KZujV6AWBUmypcqYKOSvTukKwJ/m3zH0AZ47LVFrauEGNsJYycnyCCG3LwO9syyQ
34OpRcJ84WYa5B+l1+Ff7WQNNQIDAQABo38wfTAJBgNVHRMEAjAAMAsGA1UdDwQE
AwIFoDAjBgNVHREEHDAagg1zZXJ2aWNlX2dhY2hhgglsb2NhbGhvc3QwHQYDVR0O
BBYEFMe/4mOC4MPoVff/K4Sj/+xLnTKlMB8GA1UdIwQYMBaAFA6CfViZn4TzQvIz
C6yiH/MvQO9bMA0GCSqGSIb3DQEBCwUAA4ICAQAV+qR+GeUUKLii8h9GjP6iGD3A
lsi0K/X3bZMxQKFe7XJvvQDQoj0Rmv8pW/tOv/bfAJxVfmdxgIyMyukj6f4Iar6C
qJiszK+SJQvaGXJL1CKzqJrbRjpgqRyCRnVI1uFYgsFOP3o0b4lfEvDIdMsDHWIk
QZb2NLa9DZjgDXMwaMK8smVco20JX7f8Vvq282CJRTD9wgT+Cg8O98P1DXSdi0+S
ufagqAZshelgoUIDYwwujS/CbJBVl4UfqvTP34BYXEgAj1A53UGhEIlu2RV+OXzg
W9qgu7wsjI3Z+OXtrHi9n13NYPkB59VP5yQmGrtqZoPdIBeJo+qArKMFi4slvwUv
3gVC7S2vbnbTh/b0qgb1e5/mfbqP7B+es7z5Ba/Hr5NxinuSN+qKNuFP5xupgy4H
01dSJv/NO1FLfnDNAh3cdo7trL1C0GKpBtMA/RrBVujThBNhRMrv2dNtnmQj2xX+
CUWOz5YPwiwYxB5Z0OvC3MRsVygljVAFkdmWCP17b+CKqRugxbdoz2BBVLsGx4J3
zWkfE5QJnxWoqD75XAG9NXK0Vx7Gth+q1+8IwAgL7toO/KNZcevA4p02OxVmY8D+
2UBiHc68m8PnihJRnWjutedE6OytlT28onaCTe7UBqVLqVuOiPA0xOLinxQ59uTI
LhXU3YWzMx+O9vc0jQ==
-----END CERTIFICATE-----
