Certificate:
    Data:
        Version: 3 (0x2)
        Serial Number: 7 (0x7)
        Signature Algorithm: sha256WithRSAEncryption
        Issuer: C=IT, ST=Tuscany, L=Pisa, O=GachaAndGames, OU=ServiceCA, CN=Service CA
        Validity
            Not Before: Dec  5 11:24:44 2024 GMT
            Not After : Dec  5 11:24:44 2027 GMT
        Subject: C=IT, ST=Tuscany, L=Pisa, O=GachaAndGames, OU=Develop, CN=service_inventory
        Subject Public Key Info:
            Public Key Algorithm: rsaEncryption
                Public-Key: (4096 bit)
                Modulus:
                    00:a1:73:71:2c:82:30:42:2d:f3:be:7a:61:fe:4e:
                    18:e6:ce:9e:af:39:a9:e9:3e:a5:d7:3f:3d:1e:4a:
                    07:01:bb:a2:e8:c6:77:05:e5:30:56:14:d5:97:35:
                    63:45:3e:30:78:98:a2:85:d2:1b:3b:82:0c:3e:d4:
                    c2:2b:e4:07:2d:bf:34:6d:1c:61:ee:82:31:f7:6b:
                    c1:7d:29:df:be:7e:4c:44:8b:21:df:bd:db:59:b0:
                    84:79:c4:9e:d2:fa:d2:03:0b:e1:63:de:96:ed:4b:
                    b5:eb:55:d3:97:54:bf:29:43:e6:cd:a0:70:08:06:
                    63:8e:6b:31:04:f8:2a:d2:fd:bc:e0:f3:10:8b:ae:
                    17:7b:b1:6d:50:a8:2a:95:15:9c:f8:09:f5:16:05:
                    18:f8:c1:3e:c3:55:a9:8c:7d:18:10:4d:27:6a:cf:
                    d2:4b:87:4b:39:8a:72:6f:54:fa:bb:8d:5e:86:cb:
                    98:dc:ea:64:92:bd:4f:4a:4d:a7:98:2a:ee:ff:71:
                    bb:54:a4:87:61:05:b4:b5:5c:ae:7a:56:7e:e5:77:
                    4d:56:ce:8c:60:31:9a:3e:80:32:77:97:e7:28:b0:
                    60:e3:83:f6:d1:57:c2:55:c7:e2:f5:64:21:02:52:
                    48:50:68:0b:49:d3:b8:9f:53:ba:c7:ef:63:64:ce:
                    3d:6a:23:b2:75:88:9c:7b:90:06:3e:6f:06:ac:ba:
                    2e:8c:1e:36:88:2b:dc:a1:e9:d5:f5:f9:ca:7c:ed:
                    6c:69:33:05:9b:50:8a:46:3b:d8:ba:c5:ea:ef:73:
                    08:fe:4e:6b:dc:45:9a:68:72:c1:88:17:98:a8:10:
                    c5:12:7a:98:a1:b5:26:7e:36:fd:32:c7:4a:b7:bb:
                    7e:3b:0b:9a:4e:a3:a7:7c:4c:d6:1b:e6:f8:69:d4:
                    b8:4e:1d:cb:72:db:6a:d2:6b:38:7a:66:07:95:79:
                    af:f7:16:71:e0:6e:52:42:11:ca:9d:15:a8:02:dc:
                    6e:56:ca:d5:22:bc:bb:c9:97:11:96:5f:b5:24:74:
                    d8:e9:b8:55:ea:1b:40:18:e7:ff:50:f2:02:19:6b:
                    85:af:2d:02:80:5d:df:21:ac:20:45:0a:68:a0:6e:
                    f6:47:96:02:e4:e1:e3:3f:22:06:07:85:98:4c:9c:
                    a1:83:40:20:1f:71:2d:c3:af:0c:0f:98:c0:39:9e:
                    85:8f:b2:59:f6:60:37:29:f9:f6:99:de:ff:b7:6f:
                    cf:9e:51:db:13:e3:bb:86:9e:07:f8:66:cf:fe:ae:
                    83:cd:51:82:ca:d2:94:2b:cd:ee:d8:cc:8d:0f:4a:
                    36:7a:0a:74:eb:06:32:c6:d3:19:b6:d9:b5:1b:64:
                    41:1b:db
                Exponent: 65537 (0x10001)
        X509v3 extensions:
            X509v3 Basic Constraints: 
                CA:FALSE
            X509v3 Key Usage: 
                Digital Signature, Key Encipherment
            X509v3 Subject Alternative Name: 
                DNS:service_inventory, DNS:localhost
            X509v3 Subject Key Identifier: 
                28:5C:C1:60:26:4D:60:A3:64:BD:D5:90:D6:40:3C:A2:3E:0A:9C:2D
            X509v3 Authority Key Identifier: 
                0E:82:7D:58:99:9F:84:F3:42:F2:33:0B:AC:A2:1F:F3:2F:40:EF:5B
    Signature Algorithm: sha256WithRSAEncryption
    Signature Value:
        93:c0:75:14:0b:e6:1c:c9:f3:0c:e6:2a:3e:64:9a:e3:04:94:
        a0:88:0e:f6:d6:a7:a3:2f:17:87:3c:e3:12:df:95:c1:15:85:
        2a:8b:07:17:b2:52:ff:df:41:40:c5:b0:8f:01:2c:82:d2:11:
        7d:cb:0d:19:c7:d7:b4:86:1c:4b:4e:b9:35:25:7f:1b:45:32:
        ef:cd:df:8b:52:ff:fb:5d:f2:09:0a:92:c6:d7:6c:e1:9b:f7:
        1d:64:2e:98:97:40:0f:fe:c1:a9:3d:7c:6a:dd:cc:d4:5e:89:
        b9:c8:b6:c0:e9:2f:09:ce:43:2d:e8:a2:5f:d3:e7:8d:a2:a8:
        d2:df:b3:9e:6d:65:9e:4e:98:23:d7:89:c5:f3:e9:a5:bf:29:
        4b:f9:8e:05:21:f1:ad:84:b5:07:15:a4:57:ae:52:28:6a:6f:
        47:1f:58:d9:eb:5b:af:04:39:0d:dd:91:77:81:d4:04:51:61:
        22:4b:8f:0e:af:8b:56:d8:bf:40:b2:32:20:6e:14:c2:21:02:
        bd:3f:e5:83:4c:9d:c7:b7:92:8c:dc:6e:00:dc:3a:45:da:70:
        63:fa:9a:47:af:9e:b8:33:b4:b1:c1:ce:44:26:15:64:69:a1:
        dc:81:70:b2:67:41:ce:ef:db:0a:3c:75:2b:47:00:8a:58:f0:
        76:d0:eb:90:62:1d:2d:d1:5c:99:b6:f8:5f:26:3d:b4:88:16:
        a8:45:15:7e:40:7f:00:e9:38:37:08:ba:32:1a:82:7a:4f:82:
        3e:55:29:a5:2d:da:e7:d3:17:9f:82:be:fa:cb:64:cc:1c:12:
        a6:08:4b:17:bd:f0:3d:cf:1a:ab:d5:69:6c:e5:58:0d:c3:2f:
        8f:11:7c:41:d9:59:89:f8:0c:97:9e:dd:1c:47:15:e1:f8:ab:
        77:d9:f0:90:cd:30:1e:ab:e3:41:80:e6:b8:e7:99:af:c3:7a:
        ba:95:05:87:9f:3a:44:c3:bd:ef:b0:d9:9a:dc:55:e0:10:4c:
        1e:34:4f:10:b1:e2:77:b7:ab:fe:66:55:a1:fa:03:26:2b:6c:
        a3:d9:53:42:e3:e8:47:8c:00:25:14:45:94:19:ee:bc:d9:f2:
        97:b6:98:ed:b2:6b:2c:8f:70:30:26:2d:15:4a:4c:44:b3:f9:
        79:70:8e:72:e7:7f:ee:14:0f:60:fe:91:9f:d2:c2:8f:56:2b:
        fd:22:ba:7b:ab:33:4d:17:e7:39:2d:fc:50:0c:2e:3e:c4:27:
        5b:cc:73:9b:6e:e4:6e:c5:f1:19:c6:60:94:98:b9:46:cd:45:
        3f:60:ad:cb:77:16:a3:a0:8e:c2:eb:f8:a9:73:ec:2d:aa:12:
        ed:8b:75:b5:75:b9:6f:1e
-----BEGIN CERTIFICATE-----
MIIF4zCCA8ugAwIBAgIBBzANBgkqhkiG9w0BAQsFADBvMQswCQYDVQQGEwJJVDEQ
MA4GA1UECAwHVHVzY2FueTENMAsGA1UEBwwEUGlzYTEWMBQGA1UECgwNR2FjaGFB
bmRHYW1lczESMBAGA1UECwwJU2VydmljZUNBMRMwEQYDVQQDDApTZXJ2aWNlIENB
MB4XDTI0MTIwNTExMjQ0NFoXDTI3MTIwNTExMjQ0NFowdDELMAkGA1UEBhMCSVQx
EDAOBgNVBAgMB1R1c2NhbnkxDTALBgNVBAcMBFBpc2ExFjAUBgNVBAoMDUdhY2hh
QW5kR2FtZXMxEDAOBgNVBAsMB0RldmVsb3AxGjAYBgNVBAMMEXNlcnZpY2VfaW52
ZW50b3J5MIICIjANBgkqhkiG9w0BAQEFAAOCAg8AMIICCgKCAgEAoXNxLIIwQi3z
vnph/k4Y5s6erzmp6T6l1z89HkoHAbui6MZ3BeUwVhTVlzVjRT4weJiihdIbO4IM
PtTCK+QHLb80bRxh7oIx92vBfSnfvn5MRIsh373bWbCEecSe0vrSAwvhY96W7Uu1
61XTl1S/KUPmzaBwCAZjjmsxBPgq0v284PMQi64Xe7FtUKgqlRWc+An1FgUY+ME+
w1WpjH0YEE0nas/SS4dLOYpyb1T6u41ehsuY3Opkkr1PSk2nmCru/3G7VKSHYQW0
tVyuelZ+5XdNVs6MYDGaPoAyd5fnKLBg44P20VfCVcfi9WQhAlJIUGgLSdO4n1O6
x+9jZM49aiOydYice5AGPm8GrLoujB42iCvcoenV9fnKfO1saTMFm1CKRjvYusXq
73MI/k5r3EWaaHLBiBeYqBDFEnqYobUmfjb9MsdKt7t+OwuaTqOnfEzWG+b4adS4
Th3Lcttq0ms4emYHlXmv9xZx4G5SQhHKnRWoAtxuVsrVIry7yZcRll+1JHTY6bhV
6htAGOf/UPICGWuFry0CgF3fIawgRQpooG72R5YC5OHjPyIGB4WYTJyhg0AgH3Et
w68MD5jAOZ6Fj7JZ9mA3Kfn2md7/t2/PnlHbE+O7hp4H+GbP/q6DzVGCytKUK83u
2MyND0o2egp06wYyxtMZttm1G2RBG9sCAwEAAaOBhDCBgTAJBgNVHRMEAjAAMAsG
A1UdDwQEAwIFoDAnBgNVHREEIDAeghFzZXJ2aWNlX2ludmVudG9yeYIJbG9jYWxo
b3N0MB0GA1UdDgQWBBQoXMFgJk1go2S91ZDWQDyiPgqcLTAfBgNVHSMEGDAWgBQO
gn1YmZ+E80LyMwusoh/zL0DvWzANBgkqhkiG9w0BAQsFAAOCAgEAk8B1FAvmHMnz
DOYqPmSa4wSUoIgO9tanoy8XhzzjEt+VwRWFKosHF7JS/99BQMWwjwEsgtIRfcsN
GcfXtIYcS065NSV/G0Uy783fi1L/+13yCQqSxtds4Zv3HWQumJdAD/7BqT18at3M
1F6Juci2wOkvCc5DLeiiX9PnjaKo0t+znm1lnk6YI9eJxfPppb8pS/mOBSHxrYS1
BxWkV65SKGpvRx9Y2etbrwQ5Dd2Rd4HUBFFhIkuPDq+LVti/QLIyIG4UwiECvT/l
g0ydx7eSjNxuANw6RdpwY/qaR6+euDO0scHORCYVZGmh3IFwsmdBzu/bCjx1K0cA
iljwdtDrkGIdLdFcmbb4XyY9tIgWqEUVfkB/AOk4Nwi6MhqCek+CPlUppS3a59MX
n4K++stkzBwSpghLF73wPc8aq9VpbOVYDcMvjxF8QdlZifgMl57dHEcV4fird9nw
kM0wHqvjQYDmuOeZr8N6upUFh586RMO977DZmtxV4BBMHjRPELHid7er/mZVofoD
Jitso9lTQuPoR4wAJRRFlBnuvNnyl7aY7bJrLI9wMCYtFUpMRLP5eXCOcud/7hQP
YP6Rn9LCj1Yr/SK6e6szTRfnOS38UAwuPsQnW8xzm27kbsXxGcZglJi5Rs1FP2Ct
y3cWo6COwuv4qXPsLaoS7Yt1tXW5bx4=
-----END CERTIFICATE-----
