Certificate:
    Data:
        Version: 3 (0x2)
        Serial Number: 5 (0x5)
        Signature Algorithm: sha256WithRSAEncryption
        Issuer: C=IT, ST=Tuscany, L=Pisa, O=GachaAndGames, OU=ServiceCA, CN=Service CA
        Validity
            Not Before: Dec  5 11:22:17 2024 GMT
            Not After : Dec  5 11:22:17 2027 GMT
        Subject: C=IT, ST=Tuscany, L=Pisa, O=GachaAndGames, OU=Develop, CN=service_feedback
        Subject Public Key Info:
            Public Key Algorithm: rsaEncryption
                Public-Key: (4096 bit)
                Modulus:
                    00:ac:a5:46:b2:1d:72:e3:d9:64:b1:f7:3c:45:fd:
                    c7:c5:6f:c2:65:81:fb:43:c2:c6:18:93:cf:26:d3:
                    6f:fd:f0:d9:a7:cf:29:7b:d4:69:6d:0d:13:6f:d3:
                    d1:59:d5:2f:4b:79:93:32:57:90:7b:47:0a:93:5d:
                    69:5b:8d:99:aa:f8:50:25:df:83:7d:77:f0:00:b0:
                    ae:3e:60:cf:0b:ef:43:c6:cb:0f:30:e3:c7:95:7b:
                    bc:24:71:37:8a:12:db:f4:ef:a4:31:c7:1d:af:1c:
                    ab:4f:ea:29:1a:bf:4b:6e:9b:3d:f3:b4:58:fb:76:
                    26:38:de:b6:77:d4:3d:4a:fb:5b:eb:21:a7:75:19:
                    54:26:ae:6f:cc:01:87:64:1c:01:74:0d:5d:74:67:
                    45:b4:23:8d:38:bb:80:11:19:6d:6b:b2:7f:3e:1b:
                    f0:64:87:4c:56:75:cd:99:9f:af:50:4d:91:ca:a1:
                    2c:5b:02:e3:63:fc:e7:74:68:72:7f:54:13:1f:a6:
                    fe:b9:6d:2a:3d:50:35:4c:67:16:0a:4c:04:e0:0d:
                    07:9b:ad:f0:b0:9d:71:ed:05:60:a4:30:b3:d4:3c:
                    bb:bc:4a:de:76:65:a7:03:db:7c:90:b8:86:c4:0f:
                    f4:af:dc:0f:21:2d:e5:f6:eb:0f:36:3d:28:eb:76:
                    95:20:37:21:26:2d:80:18:48:d2:55:26:35:15:b4:
                    69:0b:34:7a:31:f7:16:48:0b:fb:5a:32:36:51:1d:
                    0b:b4:4e:cd:1d:cb:47:89:83:79:75:e7:3c:12:46:
                    97:f7:f1:e5:db:e8:74:d0:a6:b0:db:de:57:6a:ee:
                    42:0e:52:8a:44:52:31:3e:98:de:55:de:37:bc:bc:
                    e2:79:94:26:8d:4a:25:63:ea:15:36:1c:8f:45:70:
                    fd:25:fd:53:89:f8:d5:e5:68:af:71:da:61:8e:09:
                    e6:e6:36:d9:3a:00:9d:ac:09:c5:0e:93:89:aa:ea:
                    44:c3:2a:4e:fd:ae:5f:e5:bd:0c:00:9e:0b:44:c7:
                    c0:54:90:6d:c6:60:d7:32:a8:4e:2e:a3:e2:64:0f:
                    1d:83:eb:11:f6:9b:b6:29:69:c3:45:6e:59:aa:13:
                    03:89:e4:b5:97:e4:d0:00:a2:b5:cb:23:f1:b8:2e:
                    b1:28:d9:0d:17:8f:80:73:b7:d0:7b:8a:fd:5e:f0:
                    f0:cf:ee:5f:53:55:e5:8d:60:c1:eb:1b:71:81:df:
                    1d:f0:ec:75:c7:8b:c1:70:e7:95:3d:ba:5e:f1:65:
                    44:64:e8:b6:aa:dc:a3:b4:1c:0a:27:62:02:7e:35:
                    62:bc:1a:0b:09:f7:e8:28:c1:d7:ba:7f:90:dc:af:
                    07:35:ef
                Exponent: 65537 (0x10001)
        X509v3 extensions:
            X509v3 Basic Constraints: 
                CA:FALSE
            X509v3 Key Usage: 
                Digital Signature, Key Encipherment
            X509v3 Subject Alternative Name: 
                DNS:service_feedback, DNS:localhost
            X509v3 Subject Key Identifier: 
                7C:C5:25:00:AD:2C:7D:79:11:DB:FA:F0:A3:10:52:98:4C:F8:C2:87
            X509v3 Authority Key Identifier: 
                0E:82:7D:58:99:9F:84:F3:42:F2:33:0B:AC:A2:1F:F3:2F:40:EF:5B
    Signature Algorithm: sha256WithRSAEncryption
    Signature Value:
        8c:0a:54:1d:57:b8:01:09:88:38:08:88:0e:f3:ba:ce:9e:30:
        95:02:ac:6e:4a:65:f2:5a:10:b8:4d:6d:f7:5d:0b:7d:c0:41:
        0e:f4:d7:90:7b:3e:d3:b3:a5:66:cb:8a:27:65:02:31:09:7b:
        54:d5:18:7b:44:bd:90:bb:53:b7:ce:74:69:ec:3e:80:f6:b6:
        df:d8:35:52:0f:c6:6b:64:aa:87:51:9b:12:41:a3:3a:dd:6a:
        a3:80:68:e3:11:92:b7:13:ae:7c:01:c0:92:c7:1f:c1:34:20:
        66:0b:3d:8c:bf:64:2f:84:65:a3:40:bf:32:81:b4:7d:04:79:
        9d:08:f1:f6:3b:37:c4:b8:ec:ac:27:1d:70:3b:a2:7a:a9:cb:
        f9:eb:c5:4b:9b:88:3f:73:e0:be:48:be:7e:c4:04:b2:55:2c:
        d8:c7:27:dc:d4:15:af:cb:6d:e9:8a:1f:42:73:41:db:03:c4:
        c4:92:6f:63:a0:6a:9c:6e:4b:8f:99:f7:71:5b:30:6e:31:73:
        4a:ba:13:e9:90:e1:12:5e:66:78:a1:de:a2:ef:1f:20:95:d9:
        1a:94:73:50:cb:aa:53:7f:a2:2b:d4:4d:f6:e3:a8:a9:bb:24:
        db:da:d6:23:0a:7b:a2:a9:e2:c9:56:7d:74:bd:af:fb:77:cc:
        ec:ec:3f:63:5e:c9:69:b6:5d:53:53:7e:5b:6d:7a:56:8b:75:
        e4:54:af:b3:eb:08:ac:0c:c7:9e:4e:1d:21:1b:cf:5c:a4:57:
        0d:7a:0c:52:93:7f:58:8d:4d:f4:cf:f4:88:e9:fa:16:7e:81:
        9d:04:cb:59:8c:36:54:12:bb:00:00:71:16:cc:f6:d3:67:52:
        f2:b4:9a:94:50:22:ea:95:99:a5:68:17:3a:f2:f2:d4:49:ae:
        35:aa:ed:ff:20:d2:82:93:e1:ba:aa:09:cd:8c:3e:29:36:d7:
        f0:80:e7:35:15:6d:27:46:d8:96:2f:29:92:79:78:3a:ae:a7:
        d7:9f:2f:cd:3f:67:07:19:ba:69:46:8b:4b:29:11:6b:ce:64:
        95:78:3d:34:2c:40:a0:d8:9b:42:f9:33:30:62:9f:a8:85:98:
        50:14:8f:34:4f:87:1e:31:4c:05:c4:b7:69:9c:d6:6b:bc:64:
        4c:9c:4a:93:10:43:6f:f3:d6:48:fc:25:41:91:06:63:b1:1f:
        78:16:09:6c:f4:89:01:c3:51:0c:25:2a:0e:d3:c5:ef:50:0b:
        d3:c4:c5:9a:9f:3a:09:7e:2b:a9:fc:bc:93:27:cc:0e:d5:d6:
        1b:1e:c1:b4:2a:73:47:01:37:e8:15:98:f6:21:67:4d:c9:78:
        40:0c:44:81:4d:c1:42:f0
-----BEGIN CERTIFICATE-----
MIIF4TCCA8mgAwIBAgIBBTANBgkqhkiG9w0BAQsFADBvMQswCQYDVQQGEwJJVDEQ
MA4GA1UECAwHVHVzY2FueTENMAsGA1UEBwwEUGlzYTEWMBQGA1UECgwNR2FjaGFB
bmRHYW1lczESMBAGA1UECwwJU2VydmljZUNBMRMwEQYDVQQDDApTZXJ2aWNlIENB
MB4XDTI0MTIwNTExMjIxN1oXDTI3MTIwNTExMjIxN1owczELMAkGA1UEBhMCSVQx
EDAOBgNVBAgMB1R1c2NhbnkxDTALBgNVBAcMBFBpc2ExFjAUBgNVBAoMDUdhY2hh
QW5kR2FtZXMxEDAOBgNVBAsMB0RldmVsb3AxGTAXBgNVBAMMEHNlcnZpY2VfZmVl
ZGJhY2swggIiMA0GCSqGSIb3DQEBAQUAA4ICDwAwggIKAoICAQCspUayHXLj2WSx
9zxF/cfFb8JlgftDwsYYk88m02/98Nmnzyl71GltDRNv09FZ1S9LeZMyV5B7RwqT
XWlbjZmq+FAl34N9d/AAsK4+YM8L70PGyw8w48eVe7wkcTeKEtv076Qxxx2vHKtP
6ikav0tumz3ztFj7diY43rZ31D1K+1vrIad1GVQmrm/MAYdkHAF0DV10Z0W0I404
u4ARGW1rsn8+G/Bkh0xWdc2Zn69QTZHKoSxbAuNj/Od0aHJ/VBMfpv65bSo9UDVM
ZxYKTATgDQebrfCwnXHtBWCkMLPUPLu8St52ZacD23yQuIbED/Sv3A8hLeX26w82
PSjrdpUgNyEmLYAYSNJVJjUVtGkLNHox9xZIC/taMjZRHQu0Ts0dy0eJg3l15zwS
Rpf38eXb6HTQprDb3ldq7kIOUopEUjE+mN5V3je8vOJ5lCaNSiVj6hU2HI9FcP0l
/VOJ+NXlaK9x2mGOCebmNtk6AJ2sCcUOk4mq6kTDKk79rl/lvQwAngtEx8BUkG3G
YNcyqE4uo+JkDx2D6xH2m7YpacNFblmqEwOJ5LWX5NAAorXLI/G4LrEo2Q0Xj4Bz
t9B7iv1e8PDP7l9TVeWNYMHrG3GB3x3w7HXHi8Fw55U9ul7xZURk6Laq3KO0HAon
YgJ+NWK8GgsJ9+gowde6f5Dcrwc17wIDAQABo4GDMIGAMAkGA1UdEwQCMAAwCwYD
VR0PBAQDAgWgMCYGA1UdEQQfMB2CEHNlcnZpY2VfZmVlZGJhY2uCCWxvY2FsaG9z
dDAdBgNVHQ4EFgQUfMUlAK0sfXkR2/rwoxBSmEz4wocwHwYDVR0jBBgwFoAUDoJ9
WJmfhPNC8jMLrKIf8y9A71swDQYJKoZIhvcNAQELBQADggIBAIwKVB1XuAEJiDgI
iA7zus6eMJUCrG5KZfJaELhNbfddC33AQQ7015B7PtOzpWbLiidlAjEJe1TVGHtE
vZC7U7fOdGnsPoD2tt/YNVIPxmtkqodRmxJBozrdaqOAaOMRkrcTrnwBwJLHH8E0
IGYLPYy/ZC+EZaNAvzKBtH0EeZ0I8fY7N8S47KwnHXA7onqpy/nrxUubiD9z4L5I
vn7EBLJVLNjHJ9zUFa/LbemKH0JzQdsDxMSSb2OgapxuS4+Z93FbMG4xc0q6E+mQ
4RJeZnih3qLvHyCV2RqUc1DLqlN/oivUTfbjqKm7JNva1iMKe6Kp4slWfXS9r/t3
zOzsP2NeyWm2XVNTflttelaLdeRUr7PrCKwMx55OHSEbz1ykVw16DFKTf1iNTfTP
9Ijp+hZ+gZ0Ey1mMNlQSuwAAcRbM9tNnUvK0mpRQIuqVmaVoFzry8tRJrjWq7f8g
0oKT4bqqCc2MPik21/CA5zUVbSdG2JYvKZJ5eDqup9efL80/ZwcZumlGi0spEWvO
ZJV4PTQsQKDYm0L5MzBin6iFmFAUjzRPhx4xTAXEt2mc1mu8ZEycSpMQQ2/z1kj8
JUGRBmOxH3gWCWz0iQHDUQwlKg7Txe9QC9PExZqfOgl+K6n8vJMnzA7V1hsewbQq
c0cBN+gVmPYhZ03JeEAMRIFNwULw
-----END CERTIFICATE-----
