Certificate:
    Data:
        Version: 3 (0x2)
        Serial Number: 9 (0x9)
        Signature Algorithm: sha256WithRSAEncryption
        Issuer: C=IT, ST=Tuscany, L=Pisa, O=GachaAndGames, OU=ServiceCA, CN=Service CA
        Validity
            Not Before: Dec  5 11:25:39 2024 GMT
            Not After : Dec  5 11:25:39 2027 GMT
        Subject: C=IT, ST=Tuscany, L=Pisa, O=GachaAndGames, OU=Develop, CN=service_pvp
        Subject Public Key Info:
            Public Key Algorithm: rsaEncryption
                Public-Key: (4096 bit)
                Modulus:
                    00:d3:ca:5d:bd:8a:88:f7:30:a0:26:10:29:1e:a5:
                    de:4e:1f:68:1e:fa:dd:4e:87:73:8e:83:be:4d:fe:
                    b0:33:90:c5:fd:96:fc:d4:d6:82:a2:79:d1:06:b4:
                    14:0e:17:66:41:5a:04:02:63:95:32:04:60:48:7c:
                    75:a3:d1:84:53:a5:4b:ef:f6:48:e4:02:cb:4e:cd:
                    38:4b:21:be:73:fc:b5:b0:34:1a:35:07:5d:64:72:
                    a1:30:fd:1f:03:ac:62:5d:38:d3:e6:5f:57:40:c6:
                    00:17:f6:9e:6d:0f:ae:32:bb:3a:2e:d5:38:23:4a:
                    2a:0b:0f:a9:5e:b5:73:50:7f:ef:74:0b:2e:b8:a5:
                    5b:87:98:36:23:47:7c:49:66:4f:32:ac:15:e0:85:
                    89:18:f1:bc:95:41:a7:ad:65:56:11:a2:77:fb:6e:
                    6f:9b:2d:ef:a8:3a:eb:50:ba:44:04:a0:8d:e1:38:
                    c9:9e:43:f3:ea:dc:29:42:57:bd:41:fa:7e:ee:64:
                    0b:7d:e2:28:6b:ae:89:c6:d6:9f:de:d9:3c:ec:01:
                    37:e7:1b:b5:14:ba:85:4a:66:b7:db:71:07:7f:26:
                    3f:67:e4:b8:a8:88:d6:da:25:82:65:28:46:5b:96:
                    df:73:f5:2e:b0:51:a5:9b:61:23:ac:e0:08:ba:4f:
                    b5:1b:81:19:da:a5:b1:37:b4:48:e6:36:62:8d:7f:
                    d8:c8:74:41:21:12:3c:c6:38:2f:f4:fc:13:76:5a:
                    1a:06:88:40:e4:76:d2:d5:5d:3e:f5:f2:9f:fb:c6:
                    e5:74:d3:17:5b:3e:a7:10:a8:10:e0:23:74:bc:79:
                    8d:23:07:8e:09:8d:dd:59:ef:50:9d:35:30:0e:46:
                    db:c1:3f:83:20:9a:9c:6f:20:c7:10:0b:a2:be:48:
                    37:52:94:ae:d0:12:d8:0f:fa:e3:0c:4e:02:31:ce:
                    7f:e1:be:0f:44:ef:ce:68:72:8e:14:95:b7:86:f1:
                    9f:5e:aa:d6:34:e9:55:94:97:ce:3b:44:94:75:ac:
                    51:4f:89:0f:c5:11:f4:f7:eb:85:8f:27:42:13:01:
                    fa:e2:99:95:04:bc:3f:7a:ca:aa:0b:16:1a:6e:fd:
                    32:f6:57:d5:ae:d9:b2:8f:11:d6:68:c6:f6:2a:eb:
                    72:7f:13:20:52:bb:81:30:75:aa:da:c9:21:96:ea:
                    27:b5:76:62:e7:6e:5f:f9:56:8c:27:41:45:f1:3d:
                    f6:24:94:74:29:00:7e:f9:ac:41:02:f5:99:63:11:
                    33:1e:41:2a:c3:55:ef:5e:89:11:10:0a:23:2c:8a:
                    42:33:70:77:ca:8d:e7:c1:b8:6d:4a:7a:e5:80:de:
                    00:a2:9b
                Exponent: 65537 (0x10001)
        X509v3 extensions:
            X509v3 Basic Constraints: 
                CA:FALSE
            X509v3 Key Usage: 
                Digital Signature, Key Encipherment
            X509v3 Subject Alternative Name: 
                DNS:service_pvp, DNS:localhost
            X509v3 Subject Key Identifier: 
                47:0C:FE:CD:63:81:5B:D9:1A:D8:3D:85:CD:D8:10:D9:FB:ED:40:7A
            X509v3 Authority Key Identifier: 
                0E:82:7D:58:99:9F:84:F3:42:F2:33:0B:AC:A2:1F:F3:2F:40:EF:5B
    Signature Algorithm: sha256WithRSAEncryption
    Signature Value:
        7a:60:04:50:30:23:07:2e:36:a9:38:b9:54:4f:e5:df:81:32:
        a5:85:6f:81:97:1e:7e:b3:c3:68:fc:19:4b:ec:51:03:de:5a:
        c5:01:0e:5c:ef:40:57:12:43:aa:4b:86:2d:7e:02:7c:1c:78:
        06:d0:e8:ba:ed:8e:31:73:95:3b:be:26:5b:ba:97:ff:c5:ec:
        94:b2:83:85:ac:e3:8b:a3:7f:ee:8f:28:c2:09:0e:f8:5a:d6:
        a4:65:ca:84:23:18:7a:df:1c:da:d5:b4:8c:69:99:21:c9:d2:
        b8:b4:85:75:36:f6:85:26:23:77:e8:97:e9:9f:67:be:37:32:
        43:56:bf:50:60:94:8a:b2:46:fd:29:a3:54:19:d8:16:f2:1b:
        1e:f8:36:37:f3:47:61:f3:80:4f:a4:03:2c:e9:85:e8:30:71:
        b0:b8:ba:db:f6:09:e0:a9:b6:a4:de:4b:52:e3:b7:22:91:c6:
        09:5e:93:82:e5:42:b9:e2:03:f1:65:f2:06:58:29:8b:fd:d2:
        d0:18:92:7b:a8:8d:ba:0a:bf:79:ea:3e:89:95:c9:9a:73:3f:
        bc:6b:61:63:8f:6f:04:a8:a3:60:17:22:13:1b:74:98:6e:fc:
        b4:23:5c:b0:47:42:29:a9:01:a9:f8:83:6f:6f:69:1a:a6:18:
        69:59:ed:e5:77:c0:c8:4b:2f:f1:99:7f:21:33:20:4e:da:99:
        0f:08:b6:d7:9c:bb:f1:dc:a8:7c:85:06:cc:07:d0:29:14:39:
        17:04:92:46:e0:8e:87:ad:d3:2d:0f:31:51:cb:7c:e5:12:b1:
        9d:ab:8d:bd:67:4f:c0:93:60:f4:c2:b3:97:10:d0:ac:7c:19:
        ce:f9:0b:90:29:ad:a1:a2:00:42:19:a1:64:3d:78:27:5b:a0:
        1b:66:13:a5:d5:92:82:d7:0d:da:e1:a2:8a:1b:07:c2:7b:58:
        94:36:6b:ad:40:81:35:33:bc:33:8e:6b:08:4c:61:47:39:6f:
        22:c2:79:bc:a5:a2:ed:36:a4:4b:ac:7f:34:a2:20:63:ba:49:
        d2:41:5b:1a:e9:b4:19:af:7a:f2:e2:2d:3f:81:34:1c:ea:60:
        e7:5b:29:af:53:e0:63:d2:39:84:c1:44:ed:fd:b9:eb:e9:2d:
        55:42:36:15:34:08:77:1e:6b:aa:51:d1:36:9c:60:6f:de:f0:
        e6:3e:9c:23:22:f3:6f:e1:22:b6:5f:cd:29:cb:e6:1b:53:d6:
        c5:46:47:91:da:aa:42:7e:f3:1a:12:ae:60:04:b3:40:77:76:
        13:9c:94:8f:fc:0a:ab:91:a6:9e:92:ef:51:bb:1c:bd:86:cc:
        c5:55:16:9d:32:36:78:3f
-----BEGIN CERTIFICATE-----
MIIF1TCCA72gAwIBAgIBCTANBgkqhkiG9w0BAQsFADBvMQswCQYDVQQGEwJJVDEQ
MA4GA1UECAwHVHVzY2FueTENMAsGA1UEBwwEUGlzYTEWMBQGA1UECgwNR2FjaGFB
bmRHYW1lczESMBAGA1UECwwJU2VydmljZUNBMRMwEQYDVQQDDApTZXJ2aWNlIENB
MB4XDTI0MTIwNTExMjUzOVoXDTI3MTIwNTExMjUzOVowbjELMAkGA1UEBhMCSVQx
EDAOBgNVBAgMB1R1c2NhbnkxDTALBgNVBAcMBFBpc2ExFjAUBgNVBAoMDUdhY2hh
QW5kR2FtZXMxEDAOBgNVBAsMB0RldmVsb3AxFDASBgNVBAMMC3NlcnZpY2VfcHZw
MIICIjANBgkqhkiG9w0BAQEFAAOCAg8AMIICCgKCAgEA08pdvYqI9zCgJhApHqXe
Th9oHvrdTodzjoO+Tf6wM5DF/Zb81NaConnRBrQUDhdmQVoEAmOVMgRgSHx1o9GE
U6VL7/ZI5ALLTs04SyG+c/y1sDQaNQddZHKhMP0fA6xiXTjT5l9XQMYAF/aebQ+u
Mrs6LtU4I0oqCw+pXrVzUH/vdAsuuKVbh5g2I0d8SWZPMqwV4IWJGPG8lUGnrWVW
EaJ3+25vmy3vqDrrULpEBKCN4TjJnkPz6twpQle9Qfp+7mQLfeIoa66Jxtaf3tk8
7AE35xu1FLqFSma323EHfyY/Z+S4qIjW2iWCZShGW5bfc/UusFGlm2EjrOAIuk+1
G4EZ2qWxN7RI5jZijX/YyHRBIRI8xjgv9PwTdloaBohA5HbS1V0+9fKf+8bldNMX
Wz6nEKgQ4CN0vHmNIweOCY3dWe9QnTUwDkbbwT+DIJqcbyDHEAuivkg3UpSu0BLY
D/rjDE4CMc5/4b4PRO/OaHKOFJW3hvGfXqrWNOlVlJfOO0SUdaxRT4kPxRH09+uF
jydCEwH64pmVBLw/esqqCxYabv0y9lfVrtmyjxHWaMb2KutyfxMgUruBMHWq2skh
luontXZi525f+VaMJ0FF8T32JJR0KQB++axBAvWZYxEzHkEqw1XvXokREAojLIpC
M3B3yo3nwbhtSnrlgN4AopsCAwEAAaN9MHswCQYDVR0TBAIwADALBgNVHQ8EBAMC
BaAwIQYDVR0RBBowGIILc2VydmljZV9wdnCCCWxvY2FsaG9zdDAdBgNVHQ4EFgQU
Rwz+zWOBW9ka2D2FzdgQ2fvtQHowHwYDVR0jBBgwFoAUDoJ9WJmfhPNC8jMLrKIf
8y9A71swDQYJKoZIhvcNAQELBQADggIBAHpgBFAwIwcuNqk4uVRP5d+BMqWFb4GX
Hn6zw2j8GUvsUQPeWsUBDlzvQFcSQ6pLhi1+AnwceAbQ6LrtjjFzlTu+Jlu6l//F
7JSyg4Ws44ujf+6PKMIJDvha1qRlyoQjGHrfHNrVtIxpmSHJ0ri0hXU29oUmI3fo
l+mfZ743MkNWv1BglIqyRv0po1QZ2BbyGx74NjfzR2HzgE+kAyzphegwcbC4utv2
CeCptqTeS1LjtyKRxglek4LlQrniA/Fl8gZYKYv90tAYknuojboKv3nqPomVyZpz
P7xrYWOPbwSoo2AXIhMbdJhu/LQjXLBHQimpAan4g29vaRqmGGlZ7eV3wMhLL/GZ
fyEzIE7amQ8Ittecu/HcqHyFBswH0CkUORcEkkbgjoet0y0PMVHLfOUSsZ2rjb1n
T8CTYPTCs5cQ0Kx8Gc75C5ApraGiAEIZoWQ9eCdboBtmE6XVkoLXDdrhooobB8J7
WJQ2a61AgTUzvDOOawhMYUc5byLCebylou02pEusfzSiIGO6SdJBWxrptBmvevLi
LT+BNBzqYOdbKa9T4GPSOYTBRO39uevpLVVCNhU0CHcea6pR0TacYG/e8OY+nCMi
82/hIrZfzSnL5htT1sVGR5HaqkJ+8xoSrmAEs0B3dhOclI/8CquRpp6S71G7HL2G
zMVVFp0yNng/
-----END CERTIFICATE-----
