Certificate:
    Data:
        Version: 3 (0x2)
        Serial Number: 1 (0x1)
        Signature Algorithm: sha256WithRSAEncryption
        Issuer: C=IT, ST=Tuscany, L=Pisa, O=GachaAndGames, OU=RedisCA, CN=Redis CA
        Validity
            Not Before: Dec  4 16:05:06 2024 GMT
            Not After : Dec  4 16:05:06 2027 GMT
        Subject: C=IT, ST=Tuscany, L=Pisa, O=GachaAndGames, OU=Develop, CN=redis
        Subject Public Key Info:
            Public Key Algorithm: rsaEncryption
                Public-Key: (4096 bit)
                Modulus:
                    00:9e:c9:76:26:70:fb:89:42:3c:ab:06:27:b3:52:
                    80:3b:96:6d:97:e3:b0:74:28:6f:84:7b:aa:63:99:
                    93:cd:bb:11:dc:b5:50:e6:94:ba:fa:ef:a8:83:a4:
                    30:c1:60:18:44:e7:95:4c:0d:a7:4c:ed:eb:3a:eb:
                    9e:46:77:ea:41:2c:12:33:74:56:42:90:9c:ce:e3:
                    c7:91:b5:fb:76:8e:92:4b:5a:a6:78:7b:f8:61:39:
                    d1:bc:22:2c:51:b1:03:f4:06:19:8e:ae:f2:ed:6f:
                    84:1d:98:f5:4d:9c:44:54:5e:95:2a:ed:29:0f:b1:
                    f1:56:7a:9e:06:4a:ad:67:42:6a:48:45:f0:94:7a:
                    bf:0f:e2:7d:d6:81:64:3c:a3:6b:36:f0:fa:be:26:
                    56:6c:72:40:8b:8f:33:aa:de:4d:2f:e1:28:5a:f3:
                    02:19:8a:2c:f6:aa:c5:36:dd:f1:11:10:00:d7:99:
                    04:e0:ea:b8:f1:14:41:f7:a6:27:b2:9a:cb:0a:3a:
                    61:8f:3a:85:90:7d:ff:a0:5d:19:63:6b:04:c0:f3:
                    e1:ce:bd:1f:0b:a3:69:fa:4e:66:74:33:b2:48:45:
                    1e:a0:18:af:d1:4c:84:0a:55:d5:a9:2a:1a:45:05:
                    cb:8b:5b:79:c2:82:e4:ea:31:7e:5a:8a:5d:a8:ad:
                    48:cb:1b:df:4a:1c:69:47:49:7f:26:c6:2b:01:6f:
                    57:76:c1:85:1e:4a:4a:88:9e:0a:57:5d:71:a1:4f:
                    4f:76:b3:c3:39:64:bd:76:81:a7:72:8c:fc:eb:81:
                    34:6c:33:d2:ee:20:b2:19:e5:d2:3a:99:cc:62:5b:
                    70:4b:6c:a8:2a:73:ca:75:15:a8:6f:df:f3:b8:72:
                    ce:4b:6b:e4:ba:ef:b5:f9:02:24:2b:f1:94:f8:3b:
                    98:99:f0:e7:00:92:10:76:3c:78:f5:89:bc:6d:40:
                    23:c1:c4:1f:37:ab:d2:7c:69:d3:56:30:93:26:14:
                    52:d0:1b:3a:0b:97:e9:da:35:19:b0:f0:5b:4f:fb:
                    a8:2a:fd:45:29:b6:5d:a3:26:0b:a5:24:e9:31:2a:
                    61:46:82:6c:51:b9:39:d6:c6:89:4c:c2:b8:2b:e8:
                    d0:9d:b9:8d:2f:4c:0c:5e:f6:4d:a3:3d:b0:2d:05:
                    eb:fb:1d:60:ab:7b:fa:d3:49:c2:e0:33:2c:ba:52:
                    b7:57:72:e7:60:e3:a1:c3:76:1e:17:5a:71:67:7e:
                    cf:a6:2a:da:79:9e:6f:45:7c:10:77:12:7a:5f:16:
                    51:28:69:db:ee:a0:3c:8b:a0:8f:82:89:77:71:fb:
                    6f:9c:88:e8:b0:45:23:41:93:73:38:aa:7d:f2:c8:
                    7c:91:6d
                Exponent: 65537 (0x10001)
        X509v3 extensions:
            X509v3 Basic Constraints: 
                CA:FALSE
            X509v3 Key Usage: 
                Digital Signature, Key Encipherment
            X509v3 Subject Alternative Name: 
                DNS:redis
            X509v3 Subject Key Identifier: 
                11:B5:A7:CD:55:92:90:11:F8:21:4E:28:76:AE:78:03:3D:22:F8:EE
            X509v3 Authority Key Identifier: 
                5D:CF:F3:D4:13:E6:AC:50:B8:12:B9:82:DB:A1:4F:E6:62:91:4E:D6
    Signature Algorithm: sha256WithRSAEncryption
    Signature Value:
        13:1b:e7:91:c0:1f:4d:0e:46:73:e7:c5:bd:fc:86:d6:d8:6e:
        6a:8a:97:2d:81:7a:c2:31:a7:17:fd:76:03:f1:c4:39:5a:9d:
        12:22:11:49:7e:65:b2:94:15:8c:2c:a2:ae:2e:ad:a9:d7:6c:
        e9:ee:c1:6b:cd:e5:3d:4e:d8:c5:c6:f9:eb:63:6e:72:3b:d1:
        2a:4b:3e:d7:8c:8c:19:aa:38:0a:c3:9a:58:13:0e:f6:4d:66:
        a4:98:db:00:fd:eb:9f:52:d5:c2:70:5e:7d:3a:0f:5f:b7:44:
        1f:f5:be:00:ae:3b:fd:1d:5c:ca:79:8d:ce:32:e0:a1:5d:66:
        8b:51:b8:7a:64:3c:82:5a:8d:0e:55:95:f6:91:15:d4:fe:50:
        10:72:9f:2b:6a:15:06:3b:b4:79:bc:f8:d7:9d:f2:76:b0:b9:
        45:be:5b:2c:82:89:fc:ac:5b:49:08:0c:1c:7f:31:27:49:45:
        3b:8e:da:87:05:23:fc:7a:c1:c2:c6:15:51:b6:59:cf:41:48:
        81:f3:dd:1c:ae:27:1e:31:f2:a5:8b:b8:18:e3:20:f7:47:09:
        2f:a7:f0:04:28:20:60:18:97:4f:f0:e0:28:7f:92:a3:39:a7:
        f7:42:7b:51:0a:79:01:4b:d6:65:a6:36:f3:1d:d5:40:9d:aa:
        74:de:c6:08:e4:a5:89:87:09:9f:f6:fc:e0:c0:89:26:42:11:
        b1:ba:b9:e4:0c:92:03:71:40:d3:71:e7:e8:45:e6:3d:5c:8d:
        e1:09:a5:c4:a8:32:0b:a2:f1:7c:40:37:b5:06:53:f1:cb:21:
        21:76:38:95:e2:bf:34:40:a2:ba:0d:1e:c9:39:08:d8:1a:03:
        0a:f7:4a:20:24:35:85:aa:06:48:db:ff:9e:b5:50:ef:0b:00:
        df:35:23:c5:1f:44:d5:12:a0:22:88:91:e8:98:9f:9b:c7:17:
        c2:d4:d2:79:1c:9b:49:e5:53:a4:30:33:27:5b:a6:fb:46:6c:
        3e:4b:d9:04:8a:e6:63:b0:5f:33:5a:50:de:c1:1f:5c:df:72:
        4c:a2:f4:39:41:35:77:85:66:e3:21:4b:c1:dd:59:b7:2e:c2:
        15:cd:f9:48:f8:c2:ea:67:98:e8:d8:a1:b8:f4:f9:ac:99:db:
        0f:36:e2:44:63:00:7d:ff:98:e2:08:4e:1b:d2:8e:b6:91:8d:
        e1:08:47:b6:00:25:3b:49:23:12:6a:2b:e1:5b:6c:98:55:40:
        75:a9:cf:62:37:20:b2:1b:67:ce:aa:71:72:02:c9:80:4d:fe:
        95:03:40:92:ed:c7:d1:1e:57:b5:3a:96:f0:b0:17:4a:a5:4e:
        8d:6f:76:4e:f2:a6:e4:0b
-----BEGIN CERTIFICATE-----
MIIFujCCA6KgAwIBAgIBATANBgkqhkiG9w0BAQsFADBrMQswCQYDVQQGEwJJVDEQ
MA4GA1UECAwHVHVzY2FueTENMAsGA1UEBwwEUGlzYTEWMBQGA1UECgwNR2FjaGFB
bmRHYW1lczEQMA4GA1UECwwHUmVkaXNDQTERMA8GA1UEAwwIUmVkaXMgQ0EwHhcN
MjQxMjA0MTYwNTA2WhcNMjcxMjA0MTYwNTA2WjBoMQswCQYDVQQGEwJJVDEQMA4G
A1UECAwHVHVzY2FueTENMAsGA1UEBwwEUGlzYTEWMBQGA1UECgwNR2FjaGFBbmRH
YW1lczEQMA4GA1UECwwHRGV2ZWxvcDEOMAwGA1UEAwwFcmVkaXMwggIiMA0GCSqG
SIb3DQEBAQUAA4ICDwAwggIKAoICAQCeyXYmcPuJQjyrBiezUoA7lm2X47B0KG+E
e6pjmZPNuxHctVDmlLr676iDpDDBYBhE55VMDadM7es6655Gd+pBLBIzdFZCkJzO
48eRtft2jpJLWqZ4e/hhOdG8IixRsQP0BhmOrvLtb4QdmPVNnERUXpUq7SkPsfFW
ep4GSq1nQmpIRfCUer8P4n3WgWQ8o2s28Pq+JlZsckCLjzOq3k0v4Sha8wIZiiz2
qsU23fEREADXmQTg6rjxFEH3pieymssKOmGPOoWQff+gXRljawTA8+HOvR8Lo2n6
TmZ0M7JIRR6gGK/RTIQKVdWpKhpFBcuLW3nCguTqMX5ail2orUjLG99KHGlHSX8m
xisBb1d2wYUeSkqIngpXXXGhT092s8M5ZL12gadyjPzrgTRsM9LuILIZ5dI6mcxi
W3BLbKgqc8p1Fahv3/O4cs5La+S677X5AiQr8ZT4O5iZ8OcAkhB2PHj1ibxtQCPB
xB83q9J8adNWMJMmFFLQGzoLl+naNRmw8FtP+6gq/UUptl2jJgulJOkxKmFGgmxR
uTnWxolMwrgr6NCduY0vTAxe9k2jPbAtBev7HWCre/rTScLgMyy6UrdXcudg46HD
dh4XWnFnfs+mKtp5nm9FfBB3EnpfFlEoadvuoDyLoI+CiXdx+2+ciOiwRSNBk3M4
qn3yyHyRbQIDAQABo2wwajAJBgNVHRMEAjAAMAsGA1UdDwQEAwIFoDAQBgNVHREE
CTAHggVyZWRpczAdBgNVHQ4EFgQUEbWnzVWSkBH4IU4odq54Az0i+O4wHwYDVR0j
BBgwFoAUXc/z1BPmrFC4ErmC26FP5mKRTtYwDQYJKoZIhvcNAQELBQADggIBABMb
55HAH00ORnPnxb38htbYbmqKly2BesIxpxf9dgPxxDlanRIiEUl+ZbKUFYwsoq4u
ranXbOnuwWvN5T1O2MXG+etjbnI70SpLPteMjBmqOArDmlgTDvZNZqSY2wD9659S
1cJwXn06D1+3RB/1vgCuO/0dXMp5jc4y4KFdZotRuHpkPIJajQ5VlfaRFdT+UBBy
nytqFQY7tHm8+Ned8nawuUW+WyyCifysW0kIDBx/MSdJRTuO2ocFI/x6wcLGFVG2
Wc9BSIHz3RyuJx4x8qWLuBjjIPdHCS+n8AQoIGAYl0/w4Ch/kqM5p/dCe1EKeQFL
1mWmNvMd1UCdqnTexgjkpYmHCZ/2/ODAiSZCEbG6ueQMkgNxQNNx5+hF5j1cjeEJ
pcSoMgui8XxAN7UGU/HLISF2OJXivzRAoroNHsk5CNgaAwr3SiAkNYWqBkjb/561
UO8LAN81I8UfRNUSoCKIkeiYn5vHF8LU0nkcm0nlU6QwMydbpvtGbD5L2QSK5mOw
XzNaUN7BH1zfckyi9DlBNXeFZuMhS8HdWbcuwhXN+Uj4wupnmOjYobj0+ayZ2w82
4kRjAH3/mOIIThvSjraRjeEIR7YAJTtJIxJqK+FbbJhVQHWpz2I3ILIbZ86qcXIC
yYBN/pUDQJLtx9EeV7U6lvCwF0qlTo1vdk7ypuQL
-----END CERTIFICATE-----
