Certificate:
    Data:
        Version: 3 (0x2)
        Serial Number: 1 (0x1)
        Signature Algorithm: sha256WithRSAEncryption
        Issuer: C=IT, ST=Tuscany, L=Pisa, O=GachaAndGames, OU=RedisCA, CN=Redis CA
        Validity
            Not Before: Dec  5 01:48:41 2024 GMT
            Not After : Dec  5 01:48:41 2027 GMT
        Subject: C=IT, ST=Tuscany, L=Pisa, O=GachaAndGames, OU=Develop, CN=redis
        Subject Public Key Info:
            Public Key Algorithm: rsaEncryption
                Public-Key: (4096 bit)
                Modulus:
                    00:9f:e1:a5:ec:b5:f0:f8:e9:e8:a6:08:07:5d:de:
                    6e:6e:5f:a1:75:2b:23:42:85:3f:a0:4b:73:3f:0a:
                    df:9f:11:1a:af:58:d5:9d:8c:16:9f:bf:c4:02:f3:
                    b5:c9:16:cd:bf:ab:22:b2:07:39:8b:13:d4:1e:cf:
                    5f:82:a5:82:d1:41:69:9a:e2:46:48:a7:d1:ab:22:
                    d8:2a:22:99:db:eb:2b:0c:e4:9b:07:8d:34:1b:47:
                    2c:88:8b:d7:ae:08:56:91:96:e9:40:ab:28:d7:12:
                    7c:86:c8:46:0a:05:ee:ef:4d:a6:fa:b4:8c:5e:d0:
                    78:66:e8:96:1c:96:49:c4:4a:bb:ad:63:a5:65:69:
                    42:9a:ef:a7:e6:1a:3e:93:e7:d1:42:c5:ea:7f:49:
                    86:34:43:fd:0a:58:94:bc:be:c8:5d:18:8f:6c:de:
                    5d:3b:a9:99:36:19:b9:fc:b8:81:9c:00:d5:f3:86:
                    da:32:99:16:65:42:51:96:b6:68:2b:32:62:e6:06:
                    5c:6e:3a:df:3a:70:49:cd:f0:dd:d7:cb:a1:4d:f9:
                    83:b4:05:2c:50:a1:5f:97:9c:d4:08:e4:3e:36:40:
                    6f:47:65:b3:4f:44:0c:a2:8e:b5:58:de:70:d4:b0:
                    ea:ad:39:1d:09:60:5d:95:5b:4f:ed:84:51:16:8f:
                    2d:85:a2:70:19:a8:97:4b:44:f2:26:b7:a7:1a:cc:
                    5b:d3:36:02:6e:9b:d0:78:30:1b:7b:30:03:0d:3b:
                    8e:2d:60:c9:fb:6e:a1:38:9c:56:52:2c:19:7b:9f:
                    7d:98:5e:e8:dc:57:49:34:22:0e:67:e2:02:1a:bc:
                    6b:d9:84:c4:00:95:da:a1:54:1e:a3:1f:9f:66:05:
                    83:24:b4:6b:25:6b:ea:af:3f:89:34:fe:13:7f:30:
                    91:9a:b9:fe:d4:db:a5:7b:b5:60:61:f9:36:f7:ea:
                    45:46:04:ad:6e:c2:31:d8:51:9a:8a:d4:38:ad:28:
                    e9:90:89:2d:0e:fd:24:eb:74:e8:c6:dd:e3:24:16:
                    b8:a0:6a:f6:25:11:35:4a:91:41:9b:e0:c9:1d:35:
                    6e:81:50:c6:6e:31:50:e6:ed:db:3f:d3:85:7b:f4:
                    44:1b:38:b3:56:4c:c6:b6:3c:3b:e5:b9:98:3e:2d:
                    4f:73:f6:1b:d2:24:b7:f5:0e:75:8c:41:ab:4d:e3:
                    43:95:74:d2:be:55:99:55:81:eb:47:19:d8:a3:68:
                    24:b6:bb:24:09:69:c8:11:63:0a:58:1a:9d:16:10:
                    21:ad:b2:ea:92:20:6d:6d:8d:05:39:c0:13:ea:e0:
                    66:48:bb:16:79:cb:0a:6c:3e:d7:6a:08:6b:e4:64:
                    ab:4b:b5
                Exponent: 65537 (0x10001)
        X509v3 extensions:
            X509v3 Basic Constraints: 
                CA:FALSE
            X509v3 Key Usage: 
                Digital Signature, Key Encipherment
            X509v3 Subject Alternative Name: 
                DNS:redis
            X509v3 Subject Key Identifier: 
                79:8F:68:9B:3E:8F:8D:C9:3B:39:01:42:E1:5F:8C:F8:6F:69:42:A2
            X509v3 Authority Key Identifier: 
                DirName:/C=IT/ST=Tuscany/L=Pisa/O=GachaAndGames/OU=RootCA/CN=Root CA
                serial:30:B5:A9:0C:08:BD:5D:F3:B6:F8:CD:A0:3B:88:C3:7B:F2:34:7C:26
    Signature Algorithm: sha256WithRSAEncryption
    Signature Value:
        03:57:c6:c9:66:f4:a3:67:1b:02:f4:95:27:fc:d6:ae:e2:31:
        0d:eb:bf:50:98:26:7d:77:a6:9f:e1:96:92:2a:64:1f:5f:ba:
        58:13:58:3e:2d:02:4e:1f:f2:df:5e:cf:21:92:71:36:23:28:
        d5:40:90:4e:52:01:d3:69:9f:88:6a:7d:c5:6c:84:90:66:56:
        c0:dc:12:80:15:11:7f:54:a3:d5:6c:ca:41:02:03:68:e0:b3:
        1f:df:37:5e:d0:ef:1f:a7:45:f6:b9:e0:2a:3f:51:41:c9:7a:
        f5:06:1b:e9:54:d1:0d:68:86:20:9a:62:ea:6e:ba:0d:ea:e9:
        28:02:c0:f4:4f:52:21:7d:7e:af:e5:89:21:80:a1:2c:b2:d4:
        a4:b9:0a:f6:a6:4c:75:aa:65:29:3b:73:6f:42:7e:65:17:e1:
        07:8c:27:6e:4a:3f:fa:69:f7:e3:e8:ed:0c:01:06:29:c2:b5:
        d0:3c:be:c5:1a:e0:7c:4f:7a:e2:8b:7a:e1:4d:b3:a6:11:3e:
        85:d2:c9:24:57:06:25:ce:75:41:a2:46:de:eb:7b:e3:0b:c3:
        8f:54:65:71:84:56:18:86:48:67:61:e2:a6:79:b8:7c:23:a6:
        be:75:4a:be:6b:b8:15:97:97:95:af:f0:8c:87:37:bc:c1:54:
        4e:06:95:eb:e1:67:ac:2e:4e:ba:68:8d:fb:88:17:ba:88:65:
        5a:13:e8:77:2d:56:8f:d9:a0:cc:7f:fc:03:50:e3:c6:d3:64:
        af:73:72:b9:6a:28:71:d9:5a:fb:4b:a4:8c:e5:4e:79:db:97:
        12:1b:04:8d:60:55:a4:3b:7c:67:01:54:0d:96:26:c3:f4:4a:
        f0:03:76:db:f9:e7:7b:28:f5:d7:da:21:b5:f8:cd:df:fc:52:
        4b:21:80:ca:16:cc:21:7c:33:d4:5c:c4:82:d4:cd:8c:51:55:
        ef:03:1d:61:d7:6d:8c:a7:09:85:c4:1b:b8:d8:4f:2e:83:56:
        2f:1c:a6:51:cd:fb:e5:36:07:19:97:50:0f:09:df:31:b1:b4:
        f9:b8:c9:fc:de:94:87:ec:15:3c:c5:12:d2:40:45:97:1a:f3:
        14:1d:bf:c3:65:4e:e6:f1:36:a1:5b:30:5a:2b:60:40:fe:81:
        cb:e2:c6:a0:a6:39:dc:e2:87:c2:10:65:2d:ef:9f:83:1a:4c:
        58:79:32:89:dd:c0:2d:aa:38:90:76:9f:60:93:27:22:6c:66:
        b2:b5:d2:1d:ae:9e:2c:43:77:c0:bd:ba:31:ff:0b:9c:4e:e6:
        85:53:85:36:0f:66:1d:ab:ee:f3:35:ae:48:c7:a0:27:b8:41:
        d0:c4:d7:02:4d:5d:89:58
-----BEGIN CERTIFICATE-----
MIIGLjCCBBagAwIBAgIBATANBgkqhkiG9w0BAQsFADBrMQswCQYDVQQGEwJJVDEQ
MA4GA1UECAwHVHVzY2FueTENMAsGA1UEBwwEUGlzYTEWMBQGA1UECgwNR2FjaGFB
bmRHYW1lczEQMA4GA1UECwwHUmVkaXNDQTERMA8GA1UEAwwIUmVkaXMgQ0EwHhcN
MjQxMjA1MDE0ODQxWhcNMjcxMjA1MDE0ODQxWjBoMQswCQYDVQQGEwJJVDEQMA4G
A1UECAwHVHVzY2FueTENMAsGA1UEBwwEUGlzYTEWMBQGA1UECgwNR2FjaGFBbmRH
YW1lczEQMA4GA1UECwwHRGV2ZWxvcDEOMAwGA1UEAwwFcmVkaXMwggIiMA0GCSqG
SIb3DQEBAQUAA4ICDwAwggIKAoICAQCf4aXstfD46eimCAdd3m5uX6F1KyNChT+g
S3M/Ct+fERqvWNWdjBafv8QC87XJFs2/qyKyBzmLE9Qez1+CpYLRQWma4kZIp9Gr
ItgqIpnb6ysM5JsHjTQbRyyIi9euCFaRlulAqyjXEnyGyEYKBe7vTab6tIxe0Hhm
6JYclknESrutY6VlaUKa76fmGj6T59FCxep/SYY0Q/0KWJS8vshdGI9s3l07qZk2
Gbn8uIGcANXzhtoymRZlQlGWtmgrMmLmBlxuOt86cEnN8N3Xy6FN+YO0BSxQoV+X
nNQI5D42QG9HZbNPRAyijrVY3nDUsOqtOR0JYF2VW0/thFEWjy2FonAZqJdLRPIm
t6cazFvTNgJum9B4MBt7MAMNO44tYMn7bqE4nFZSLBl7n32YXujcV0k0Ig5n4gIa
vGvZhMQAldqhVB6jH59mBYMktGsla+qvP4k0/hN/MJGauf7U26V7tWBh+Tb36kVG
BK1uwjHYUZqK1DitKOmQiS0O/STrdOjG3eMkFrigavYlETVKkUGb4MkdNW6BUMZu
MVDm7ds/04V79EQbOLNWTMa2PDvluZg+LU9z9hvSJLf1DnWMQatN40OVdNK+VZlV
getHGdijaCS2uyQJacgRYwpYGp0WECGtsuqSIG1tjQU5wBPq4GZIuxZ5ywpsPtdq
CGvkZKtLtQIDAQABo4HfMIHcMAkGA1UdEwQCMAAwCwYDVR0PBAQDAgWgMBAGA1Ud
EQQJMAeCBXJlZGlzMB0GA1UdDgQWBBR5j2ibPo+NyTs5AULhX4z4b2lCojCBkAYD
VR0jBIGIMIGFoW2kazBpMQswCQYDVQQGEwJJVDEQMA4GA1UECAwHVHVzY2FueTEN
MAsGA1UEBwwEUGlzYTEWMBQGA1UECgwNR2FjaGFBbmRHYW1lczEPMA0GA1UECwwG
Um9vdENBMRAwDgYDVQQDDAdSb290IENBghQwtakMCL1d87b4zaA7iMN78jR8JjAN
BgkqhkiG9w0BAQsFAAOCAgEAA1fGyWb0o2cbAvSVJ/zWruIxDeu/UJgmfXemn+GW
kipkH1+6WBNYPi0CTh/y317PIZJxNiMo1UCQTlIB02mfiGp9xWyEkGZWwNwSgBUR
f1Sj1WzKQQIDaOCzH983XtDvH6dF9rngKj9RQcl69QYb6VTRDWiGIJpi6m66Derp
KALA9E9SIX1+r+WJIYChLLLUpLkK9qZMdaplKTtzb0J+ZRfhB4wnbko/+mn34+jt
DAEGKcK10Dy+xRrgfE964ot64U2zphE+hdLJJFcGJc51QaJG3ut74wvDj1RlcYRW
GIZIZ2Hipnm4fCOmvnVKvmu4FZeXla/wjIc3vMFUTgaV6+FnrC5OumiN+4gXuohl
WhPody1Wj9mgzH/8A1DjxtNkr3NyuWoocdla+0ukjOVOeduXEhsEjWBVpDt8ZwFU
DZYmw/RK8AN22/nneyj119ohtfjN3/xSSyGAyhbMIXwz1FzEgtTNjFFV7wMdYddt
jKcJhcQbuNhPLoNWLxymUc375TYHGZdQDwnfMbG0+bjJ/N6Uh+wVPMUS0kBFlxrz
FB2/w2VO5vE2oVswWitgQP6By+LGoKY53OKHwhBlLe+fgxpMWHkyid3ALao4kHaf
YJMnImxmsrXSHa6eLEN3wL26Mf8LnE7mhVOFNg9mHavu8zWuSMegJ7hB0MTXAk1d
iVg=
-----END CERTIFICATE-----
