Certificate:
    Data:
        Version: 3 (0x2)
        Serial Number: 22 (0x16)
        Signature Algorithm: sha256WithRSAEncryption
        Issuer: C=IT, ST=Tuscany, L=Pisa, O=GachaAndGames, OU=DbCA, CN=Db CA
        Validity
            Not Before: Dec  5 19:36:35 2024 GMT
            Not After : Dec  5 19:36:35 2027 GMT
        Subject: C=IT, ST=Tuscany, L=Pisa, O=GachaAndGames, OU=Develop, CN=service_pvp_db_primary
        Subject Public Key Info:
            Public Key Algorithm: rsaEncryption
                Public-Key: (4096 bit)
                Modulus:
                    00:b4:73:ea:35:c8:d9:e5:8d:2c:63:4e:7f:2c:ff:
                    66:ad:65:5b:bc:b2:bd:49:93:8b:ea:db:f5:d0:e4:
                    a2:95:f9:3c:83:8c:37:df:ab:e0:3a:88:d8:37:1f:
                    ae:63:99:f3:ca:12:9e:69:6c:d8:1a:14:85:72:e9:
                    8e:70:14:bd:30:2d:92:38:cf:49:66:60:d1:da:61:
                    07:43:ae:0f:bf:57:5f:99:2c:c3:f7:07:a6:7c:ef:
                    45:50:77:35:b6:d2:15:4a:13:75:83:e2:d0:57:02:
                    6a:50:d8:93:18:9b:0e:f2:78:e7:d3:53:51:3e:e0:
                    39:14:2f:e4:e0:ae:61:66:45:9f:8e:21:14:f0:bf:
                    25:41:bf:58:d5:db:6b:26:7f:88:6a:c5:77:2a:8e:
                    76:23:29:73:8c:a6:11:54:d1:b5:21:35:6a:62:b4:
                    89:04:b9:e1:68:47:ae:72:b5:f6:4f:11:92:64:b0:
                    01:eb:49:29:a4:22:d1:39:b1:16:03:63:4a:b1:f6:
                    8f:ce:e1:f2:b5:e3:2c:ad:34:8a:84:60:81:58:a5:
                    27:96:9b:ee:2c:58:a5:00:2b:6e:f1:3d:b8:50:d7:
                    3d:07:f5:5a:95:1c:02:3c:1e:ec:a7:f2:00:22:be:
                    29:76:cf:b0:32:f4:10:45:51:b0:fc:e8:b1:11:14:
                    9e:31:67:b1:cf:26:8d:39:4a:4a:b6:ae:81:81:46:
                    28:9a:0b:8f:37:5e:7d:e6:9b:89:61:6b:97:f5:69:
                    33:2f:89:5a:a7:57:07:26:c1:2c:23:9e:e5:22:82:
                    d3:90:ac:50:66:5a:d6:54:ae:06:b0:b7:73:12:84:
                    fe:fa:96:c4:5b:e3:dc:05:3f:f5:e6:6f:46:88:a1:
                    0a:0a:53:3a:fe:dd:cc:b2:59:1d:74:16:72:5b:e1:
                    66:21:a8:a0:47:49:17:86:dc:10:63:d4:c6:88:43:
                    6d:d4:d6:7d:7f:dd:2a:72:90:8d:21:13:93:41:30:
                    c3:ed:ef:90:1b:fe:7c:4b:cf:ae:2d:1a:6e:92:c2:
                    08:9d:3f:c9:47:e6:c9:89:3d:14:21:6b:c8:85:12:
                    ae:0f:81:d8:25:ad:42:54:74:00:1e:f5:46:4e:00:
                    91:29:2d:f0:f7:0f:ac:63:a4:ae:25:a5:2a:37:ca:
                    c7:bc:87:ef:26:82:32:db:ba:54:33:35:7a:bc:ef:
                    7d:d4:ed:82:b8:5a:df:d8:85:ee:83:01:5a:e7:62:
                    34:f2:e9:d1:45:9e:97:7b:9c:e3:2f:42:5e:47:02:
                    20:ab:9e:eb:a4:e8:3b:dd:ee:2f:cd:06:73:c9:2d:
                    2b:c6:05:54:fc:28:b7:e5:94:8c:9e:fd:bb:0e:c4:
                    e7:85:05
                Exponent: 65537 (0x10001)
        X509v3 extensions:
            X509v3 Basic Constraints: 
                CA:FALSE
            X509v3 Key Usage: 
                Digital Signature, Key Encipherment
            X509v3 Subject Alternative Name: 
                DNS:localhost
            X509v3 Subject Key Identifier: 
                9A:F0:DE:48:62:C2:FF:B8:21:5B:F5:00:FD:91:FF:65:93:00:F3:F9
            X509v3 Authority Key Identifier: 
                3F:87:19:0A:2D:03:0B:BD:2A:F1:04:90:64:5E:31:7C:1E:5D:93:80
    Signature Algorithm: sha256WithRSAEncryption
    Signature Value:
        23:a8:d8:f9:8f:fd:af:3b:0e:27:c0:4c:96:4e:dc:5e:ee:ac:
        83:64:df:cd:0b:a0:16:7d:d8:1f:77:06:75:39:a8:53:42:4b:
        94:3d:3d:d9:3b:23:f5:e1:67:e4:26:8b:8c:92:d9:23:f3:77:
        2d:0f:4b:61:24:d2:88:46:28:ae:67:40:e0:23:fc:5d:d3:6a:
        b3:89:93:83:2a:0e:66:79:54:3f:df:9d:df:28:e4:8a:4d:36:
        30:7c:02:d1:4a:01:4f:38:3f:2e:91:1a:53:4b:59:93:8c:91:
        53:a9:ab:1d:af:94:02:57:78:9e:54:34:2e:c5:5e:0e:04:e1:
        fe:c1:d6:b8:7a:d6:91:f8:55:88:7e:f6:61:4a:97:8d:bd:c8:
        b2:bd:d5:87:1d:be:e1:16:1f:88:ef:94:78:3e:dd:01:09:6b:
        5a:61:a4:73:4c:5b:69:cc:e2:aa:d8:a9:4c:5f:48:a5:28:da:
        96:22:cd:72:93:9e:f5:97:e1:c4:6f:b9:86:4f:31:65:3c:a0:
        f0:2c:e2:fb:f6:29:d1:0e:64:49:89:17:1f:1a:46:32:9d:12:
        66:b5:38:84:b0:f8:99:84:7f:8f:2d:f1:14:09:8c:38:81:74:
        7f:b7:ef:4b:a3:14:d2:11:84:4f:90:0d:b1:13:bf:31:8c:a6:
        97:92:9a:f7:30:5e:a8:5d:c8:ed:6e:44:99:39:97:d0:92:e4:
        1b:33:9f:88:67:ec:71:df:75:b1:22:dd:f6:98:67:53:10:c7:
        aa:54:88:12:3c:ee:34:9d:10:9e:42:84:09:58:53:99:3a:f2:
        05:26:c0:58:8c:fc:93:a6:47:83:e9:7c:91:3a:1c:8d:76:aa:
        9c:a8:f9:7e:98:3f:bf:2d:e3:b7:ee:05:b2:e9:e4:ad:6e:a2:
        96:30:f7:4d:51:72:83:a9:62:fb:05:7d:c3:72:12:d8:68:cc:
        f4:39:77:72:28:39:85:b1:df:10:3b:7e:99:02:96:a2:9f:59:
        4c:8f:3f:8f:26:bd:61:2f:8a:b8:e1:13:9f:96:fd:16:06:91:
        8a:d6:af:4a:a1:26:b6:09:66:d4:4e:52:52:6e:ab:90:95:c1:
        d3:98:73:d2:3b:4d:b7:70:c3:1f:85:2d:72:a7:49:e8:0d:14:
        af:99:e6:37:e1:aa:44:eb:3c:31:25:9c:b7:95:11:f2:0f:94:
        17:7e:9f:38:1e:bf:2b:11:2f:4e:27:72:7b:ba:2d:9e:a6:86:
        30:8b:22:50:a9:df:20:63:97:03:0a:d9:83:cb:24:df:f2:28:
        cc:5f:6b:0d:82:69:fa:cd:33:66:7a:9e:1d:81:7e:2e:6e:64:
        da:02:b8:eb:e9:d1:52:ca
-----BEGIN CERTIFICATE-----
MIIFyTCCA7GgAwIBAgIBFjANBgkqhkiG9w0BAQsFADBlMQswCQYDVQQGEwJJVDEQ
MA4GA1UECAwHVHVzY2FueTENMAsGA1UEBwwEUGlzYTEWMBQGA1UECgwNR2FjaGFB
bmRHYW1lczENMAsGA1UECwwERGJDQTEOMAwGA1UEAwwFRGIgQ0EwHhcNMjQxMjA1
MTkzNjM1WhcNMjcxMjA1MTkzNjM1WjB5MQswCQYDVQQGEwJJVDEQMA4GA1UECAwH
VHVzY2FueTENMAsGA1UEBwwEUGlzYTEWMBQGA1UECgwNR2FjaGFBbmRHYW1lczEQ
MA4GA1UECwwHRGV2ZWxvcDEfMB0GA1UEAwwWc2VydmljZV9wdnBfZGJfcHJpbWFy
eTCCAiIwDQYJKoZIhvcNAQEBBQADggIPADCCAgoCggIBALRz6jXI2eWNLGNOfyz/
Zq1lW7yyvUmTi+rb9dDkopX5PIOMN9+r4DqI2DcfrmOZ88oSnmls2BoUhXLpjnAU
vTAtkjjPSWZg0dphB0OuD79XX5ksw/cHpnzvRVB3NbbSFUoTdYPi0FcCalDYkxib
DvJ459NTUT7gORQv5OCuYWZFn44hFPC/JUG/WNXbayZ/iGrFdyqOdiMpc4ymEVTR
tSE1amK0iQS54WhHrnK19k8RkmSwAetJKaQi0TmxFgNjSrH2j87h8rXjLK00ioRg
gVilJ5ab7ixYpQArbvE9uFDXPQf1WpUcAjwe7KfyACK+KXbPsDL0EEVRsPzosREU
njFnsc8mjTlKSraugYFGKJoLjzdefeabiWFrl/VpMy+JWqdXBybBLCOe5SKC05Cs
UGZa1lSuBrC3cxKE/vqWxFvj3AU/9eZvRoihCgpTOv7dzLJZHXQWclvhZiGooEdJ
F4bcEGPUxohDbdTWfX/dKnKQjSETk0Eww+3vkBv+fEvPri0abpLCCJ0/yUfmyYk9
FCFryIUSrg+B2CWtQlR0AB71Rk4AkSkt8PcPrGOkriWlKjfKx7yH7yaCMtu6VDM1
erzvfdTtgrha39iF7oMBWudiNPLp0UWel3uc4y9CXkcCIKue66ToO93uL80Gc8kt
K8YFVPwot+WUjJ79uw7E54UFAgMBAAGjcDBuMAkGA1UdEwQCMAAwCwYDVR0PBAQD
AgWgMBQGA1UdEQQNMAuCCWxvY2FsaG9zdDAdBgNVHQ4EFgQUmvDeSGLC/7ghW/UA
/ZH/ZZMA8/kwHwYDVR0jBBgwFoAUP4cZCi0DC70q8QSQZF4xfB5dk4AwDQYJKoZI
hvcNAQELBQADggIBACOo2PmP/a87DifATJZO3F7urINk380LoBZ92B93BnU5qFNC
S5Q9Pdk7I/XhZ+Qmi4yS2SPzdy0PS2Ek0ohGKK5nQOAj/F3TarOJk4MqDmZ5VD/f
nd8o5IpNNjB8AtFKAU84Py6RGlNLWZOMkVOpqx2vlAJXeJ5UNC7FXg4E4f7B1rh6
1pH4VYh+9mFKl429yLK91YcdvuEWH4jvlHg+3QEJa1phpHNMW2nM4qrYqUxfSKUo
2pYizXKTnvWX4cRvuYZPMWU8oPAs4vv2KdEOZEmJFx8aRjKdEma1OISw+JmEf48t
8RQJjDiBdH+370ujFNIRhE+QDbETvzGMppeSmvcwXqhdyO1uRJk5l9CS5Bszn4hn
7HHfdbEi3faYZ1MQx6pUiBI87jSdEJ5ChAlYU5k68gUmwFiM/JOmR4PpfJE6HI12
qpyo+X6YP78t47fuBbLp5K1uopYw901RcoOpYvsFfcNyEthozPQ5d3IoOYWx3xA7
fpkClqKfWUyPP48mvWEvirjhE5+W/RYGkYrWr0qhJrYJZtROUlJuq5CVwdOYc9I7
Tbdwwx+FLXKnSegNFK+Z5jfhqkTrPDElnLeVEfIPlBd+nzgevysRL04ncnu6LZ6m
hjCLIlCp3yBjlwMK2YPLJN/yKMxfaw2CafrNM2Z6nh2Bfi5uZNoCuOvp0VLK
-----END CERTIFICATE-----
