Certificate:
    Data:
        Version: 3 (0x2)
        Serial Number: 4 (0x4)
        Signature Algorithm: sha256WithRSAEncryption
        Issuer: C=IT, ST=Tuscany, L=Pisa, O=GachaAndGames, OU=DbCA, CN=Db CA
        Validity
            Not Before: Dec  5 11:34:02 2024 GMT
            Not After : Dec  5 11:34:02 2027 GMT
        Subject: C=IT, ST=Tuscany, L=Pisa, O=GachaAndGames, OU=Develop, CN=service_auction_db_proxy
        Subject Public Key Info:
            Public Key Algorithm: rsaEncryption
                Public-Key: (4096 bit)
                Modulus:
                    00:96:06:46:62:c8:e5:9a:55:a2:91:74:ca:bf:84:
                    a3:0a:bf:49:c8:67:29:a0:f7:f6:47:a9:d3:c9:50:
                    be:e5:df:0a:47:25:57:d0:2c:1b:fe:0f:d8:ae:66:
                    dc:0e:37:3b:19:72:1b:24:03:e8:4f:87:30:b5:53:
                    43:d6:2e:55:18:c2:5f:39:9b:c1:dd:93:1a:4d:05:
                    02:e4:0f:8d:e8:6e:4f:d6:78:a5:58:26:25:c2:98:
                    ab:c8:6e:54:a3:15:fa:af:fc:0e:25:68:61:85:88:
                    f9:84:98:ef:ea:51:8c:26:d0:81:3d:d9:d6:69:65:
                    a1:95:21:34:70:a9:a2:88:65:17:3a:e2:b1:43:68:
                    99:d2:8d:24:40:34:03:0e:e4:7c:9b:8f:1c:f3:82:
                    08:78:70:bc:f4:a6:e3:40:1e:1c:d6:de:e0:a5:e9:
                    b0:4f:c7:0b:67:d9:11:67:1a:c7:0f:9e:d3:d2:29:
                    9a:7d:3f:5d:d9:e9:f9:41:8b:42:51:a3:b6:8c:2e:
                    05:f1:1b:5a:34:53:b0:e9:1e:97:58:77:5b:ff:ed:
                    7a:80:68:7c:9b:bd:11:d8:23:59:97:c0:e9:dd:01:
                    63:a6:43:43:51:86:e9:f9:62:7d:35:b6:4b:d5:14:
                    81:38:b0:51:1d:c5:42:6a:93:91:ef:0f:23:27:03:
                    a3:b5:3e:4e:ac:ff:36:cb:99:40:15:6d:9f:0d:c0:
                    42:90:53:ac:2f:bf:d1:ee:73:20:75:af:4a:05:69:
                    fa:92:a5:88:a4:1a:d7:89:47:58:06:76:df:9c:e8:
                    75:65:fa:76:01:94:eb:82:ec:c2:04:fe:d6:09:a4:
                    bb:aa:55:74:92:2a:9d:68:50:36:8e:e0:e3:9f:ad:
                    59:67:57:90:46:30:40:de:41:e6:fd:98:1a:4a:73:
                    85:e0:97:ed:01:d0:7a:20:eb:86:06:ac:65:50:28:
                    79:b0:fb:77:ba:9d:9f:57:24:4a:0c:04:70:2f:c6:
                    01:1d:14:2a:e3:27:56:9a:24:66:75:8c:ed:20:ea:
                    74:ab:6d:15:90:84:c0:52:ae:45:2d:ea:86:82:8e:
                    ec:f6:ea:8f:56:2b:fa:90:8d:17:07:9d:66:11:8d:
                    39:a8:88:a3:bc:fd:32:c4:25:1c:f6:d2:01:7c:e3:
                    fe:ec:bd:ea:9e:e8:9b:82:4d:05:c3:16:51:69:60:
                    94:33:11:d6:d3:50:65:34:4e:47:07:0d:ce:e7:bb:
                    ad:72:98:09:8d:9e:5d:2c:b9:ad:7e:2a:9b:6a:6e:
                    62:c1:14:33:42:4d:b2:76:7e:5e:35:42:c9:eb:3c:
                    9f:e5:86:bb:1a:ab:1f:4a:05:a4:99:1f:3f:b9:e7:
                    ad:8d:85
                Exponent: 65537 (0x10001)
        X509v3 extensions:
            X509v3 Basic Constraints: 
                CA:FALSE
            X509v3 Key Usage: 
                Digital Signature, Key Encipherment
            X509v3 Subject Alternative Name: 
                DNS:localhost
            X509v3 Subject Key Identifier: 
                26:0A:68:24:96:ED:41:BD:08:02:FF:BA:52:FE:39:5B:8F:28:CB:FF
            X509v3 Authority Key Identifier: 
                3F:87:19:0A:2D:03:0B:BD:2A:F1:04:90:64:5E:31:7C:1E:5D:93:80
    Signature Algorithm: sha256WithRSAEncryption
    Signature Value:
        42:2f:28:32:04:a4:77:ae:e4:96:57:7b:30:c8:af:e2:12:2e:
        71:65:a2:6c:9a:32:8c:15:36:45:55:c5:32:0f:fa:ca:fd:ca:
        04:f2:12:ed:c1:d3:29:d0:75:a7:88:f0:b0:55:7e:36:8f:d2:
        60:67:3e:ef:7e:3f:b8:94:9e:3d:d0:48:b4:86:a5:e9:b5:48:
        31:98:b3:14:24:b7:1a:00:21:23:f4:88:72:d1:6a:41:9f:ee:
        5b:69:0b:22:9b:0e:9a:ab:3f:00:1e:d5:91:d5:71:53:29:62:
        21:04:66:01:87:3a:90:12:e4:9a:b9:95:2f:ea:a0:8a:54:c3:
        49:5c:d7:26:51:76:c8:4d:43:1d:4b:38:08:67:b7:88:e9:1e:
        f4:82:eb:2f:00:33:f5:32:43:e8:c6:7b:72:fe:2e:f8:e7:42:
        f9:31:79:d6:cc:ba:8e:0d:6f:08:df:51:60:98:dd:e6:33:b6:
        f1:fb:53:6f:a7:b1:34:e3:00:7e:b3:13:72:3b:21:b2:32:5b:
        f3:28:6d:c8:5f:49:1f:36:ac:f3:94:55:7f:71:11:1f:be:fa:
        05:b3:92:96:94:93:cb:e7:ad:3d:a4:0c:49:4b:82:1e:eb:bd:
        0d:fd:e0:25:76:51:57:86:55:26:2c:c4:13:cd:56:3a:89:50:
        ff:8e:7c:33:7c:a4:8d:7f:cb:f7:d5:d4:81:c6:74:12:d9:50:
        2d:7c:12:3e:00:23:f1:8e:b8:57:06:0f:73:92:b4:3f:35:c8:
        29:74:3b:c3:41:7e:ee:c3:4d:f4:74:41:b0:80:10:25:d8:29:
        32:c6:9b:e8:1c:4d:fd:0c:98:30:1f:c2:25:77:f1:04:6e:9b:
        96:c1:12:a5:d1:99:e9:3b:24:e4:99:0b:d7:f1:fb:43:87:30:
        76:07:e7:85:7d:6a:a4:ac:14:ff:02:eb:26:62:5d:d1:13:0a:
        c1:91:85:61:7b:85:7a:4b:e3:ee:9b:9d:7d:16:27:21:c5:69:
        9c:c7:ef:53:84:9b:98:37:7d:72:01:92:45:1e:eb:d7:9d:ca:
        51:e1:4e:c1:59:a4:88:71:b5:c5:e6:e9:73:93:6c:1e:15:35:
        cd:e5:02:63:d3:47:92:e1:da:8c:50:86:5c:19:5e:d0:89:6c:
        7f:91:86:86:fb:18:17:fe:c8:7b:c1:ad:e0:2d:89:3d:c6:ee:
        02:e8:dc:33:bd:32:4d:a9:55:ae:b7:38:ad:63:57:37:80:71:
        25:ab:fb:3b:b6:c1:77:61:da:7b:a5:28:6e:4f:c4:f1:7a:99:
        bb:cc:23:6f:4b:e2:3d:d4:e4:70:c7:8d:a2:10:d4:46:0a:f7:
        3d:bf:a8:8d:84:07:fd:a0
-----BEGIN CERTIFICATE-----
MIIFyzCCA7OgAwIBAgIBBDANBgkqhkiG9w0BAQsFADBlMQswCQYDVQQGEwJJVDEQ
MA4GA1UECAwHVHVzY2FueTENMAsGA1UEBwwEUGlzYTEWMBQGA1UECgwNR2FjaGFB
bmRHYW1lczENMAsGA1UECwwERGJDQTEOMAwGA1UEAwwFRGIgQ0EwHhcNMjQxMjA1
MTEzNDAyWhcNMjcxMjA1MTEzNDAyWjB7MQswCQYDVQQGEwJJVDEQMA4GA1UECAwH
VHVzY2FueTENMAsGA1UEBwwEUGlzYTEWMBQGA1UECgwNR2FjaGFBbmRHYW1lczEQ
MA4GA1UECwwHRGV2ZWxvcDEhMB8GA1UEAwwYc2VydmljZV9hdWN0aW9uX2RiX3By
b3h5MIICIjANBgkqhkiG9w0BAQEFAAOCAg8AMIICCgKCAgEAlgZGYsjlmlWikXTK
v4SjCr9JyGcpoPf2R6nTyVC+5d8KRyVX0Cwb/g/YrmbcDjc7GXIbJAPoT4cwtVND
1i5VGMJfOZvB3ZMaTQUC5A+N6G5P1nilWCYlwpiryG5UoxX6r/wOJWhhhYj5hJjv
6lGMJtCBPdnWaWWhlSE0cKmiiGUXOuKxQ2iZ0o0kQDQDDuR8m48c84IIeHC89Kbj
QB4c1t7gpemwT8cLZ9kRZxrHD57T0imafT9d2en5QYtCUaO2jC4F8RtaNFOw6R6X
WHdb/+16gGh8m70R2CNZl8Dp3QFjpkNDUYbp+WJ9NbZL1RSBOLBRHcVCapOR7w8j
JwOjtT5OrP82y5lAFW2fDcBCkFOsL7/R7nMgda9KBWn6kqWIpBrXiUdYBnbfnOh1
Zfp2AZTrguzCBP7WCaS7qlV0kiqdaFA2juDjn61ZZ1eQRjBA3kHm/ZgaSnOF4Jft
AdB6IOuGBqxlUCh5sPt3up2fVyRKDARwL8YBHRQq4ydWmiRmdYztIOp0q20VkITA
Uq5FLeqGgo7s9uqPViv6kI0XB51mEY05qIijvP0yxCUc9tIBfOP+7L3qnuibgk0F
wxZRaWCUMxHW01BlNE5HBw3O57utcpgJjZ5dLLmtfiqbam5iwRQzQk2ydn5eNULJ
6zyf5Ya7GqsfSgWkmR8/ueetjYUCAwEAAaNwMG4wCQYDVR0TBAIwADALBgNVHQ8E
BAMCBaAwFAYDVR0RBA0wC4IJbG9jYWxob3N0MB0GA1UdDgQWBBQmCmgklu1BvQgC
/7pS/jlbjyjL/zAfBgNVHSMEGDAWgBQ/hxkKLQMLvSrxBJBkXjF8Hl2TgDANBgkq
hkiG9w0BAQsFAAOCAgEAQi8oMgSkd67klld7MMiv4hIucWWibJoyjBU2RVXFMg/6
yv3KBPIS7cHTKdB1p4jwsFV+No/SYGc+734/uJSePdBItIal6bVIMZizFCS3GgAh
I/SIctFqQZ/uW2kLIpsOmqs/AB7VkdVxUyliIQRmAYc6kBLkmrmVL+qgilTDSVzX
JlF2yE1DHUs4CGe3iOke9ILrLwAz9TJD6MZ7cv4u+OdC+TF51sy6jg1vCN9RYJjd
5jO28ftTb6exNOMAfrMTcjshsjJb8yhtyF9JHzas85RVf3ERH776BbOSlpSTy+et
PaQMSUuCHuu9Df3gJXZRV4ZVJizEE81WOolQ/458M3ykjX/L99XUgcZ0EtlQLXwS
PgAj8Y64VwYPc5K0PzXIKXQ7w0F+7sNN9HRBsIAQJdgpMsab6BxN/QyYMB/CJXfx
BG6blsESpdGZ6Tsk5JkL1/H7Q4cwdgfnhX1qpKwU/wLrJmJd0RMKwZGFYXuFekvj
7pudfRYnIcVpnMfvU4SbmDd9cgGSRR7r153KUeFOwVmkiHG1xebpc5NsHhU1zeUC
Y9NHkuHajFCGXBle0Ilsf5GGhvsYF/7Ie8Gt4C2JPcbuAujcM70yTalVrrc4rWNX
N4BxJav7O7bBd2Hae6Uobk/E8XqZu8wjb0viPdTkcMeNohDURgr3Pb+ojYQH/aA=
-----END CERTIFICATE-----
