Certificate:
    Data:
        Version: 3 (0x2)
        Serial Number: 5 (0x5)
        Signature Algorithm: sha256WithRSAEncryption
        Issuer: C=IT, ST=Tuscany, L=Pisa, O=GachaAndGames, OU=DbCA, CN=Db CA
        Validity
            Not Before: Dec  5 11:35:22 2024 GMT
            Not After : Dec  5 11:35:22 2027 GMT
        Subject: C=IT, ST=Tuscany, L=Pisa, O=GachaAndGames, OU=Develop, CN=service_auction_db_primary
        Subject Public Key Info:
            Public Key Algorithm: rsaEncryption
                Public-Key: (4096 bit)
                Modulus:
                    00:a2:fb:d2:af:a6:57:99:ef:0d:d4:2d:3b:1b:08:
                    3f:ec:5e:5e:25:d1:43:eb:d2:68:0b:b8:6d:4e:bb:
                    26:a1:0a:68:e6:42:e3:5b:71:fd:87:b7:9a:a3:f9:
                    b6:c0:da:d3:bd:6a:c9:22:1d:de:ee:53:3e:63:5b:
                    00:f2:cd:e9:b7:c9:f3:be:8e:d8:1a:c6:77:ca:f5:
                    42:58:ec:f4:ba:18:f0:e5:5b:3a:a6:ff:ba:da:1b:
                    d3:15:a4:61:9c:9e:ce:c0:6f:ef:26:45:36:26:fc:
                    18:a4:ef:53:a5:4e:c3:c9:ee:82:b9:99:74:d4:ce:
                    6d:6a:ec:25:5e:73:b4:89:83:c4:ca:94:97:8f:02:
                    3d:2b:bc:22:9c:3d:8b:0f:1a:db:5a:c8:03:c9:c4:
                    15:3f:ca:e5:c5:3a:fb:4e:64:ed:26:4a:e6:df:f8:
                    f5:94:01:6a:4d:04:a8:33:8e:59:bc:a0:77:74:ab:
                    8d:2a:1e:88:dc:35:52:2d:69:04:55:7c:1f:18:e5:
                    c7:de:49:2d:55:fc:ab:45:db:be:b8:6c:07:ee:e0:
                    e5:fd:66:8f:a5:3c:69:2b:e5:64:c1:b4:c5:4a:bd:
                    6b:a3:43:a6:be:44:f0:56:ea:55:8b:80:86:e8:55:
                    38:8b:7a:df:94:d1:3f:dc:56:14:4f:e3:30:73:6a:
                    c7:17:51:2d:3e:20:b1:52:59:34:23:ed:e8:4b:4f:
                    54:09:80:4f:df:12:54:e4:e4:69:42:7f:c9:fb:1a:
                    77:4f:d5:b0:72:67:79:0a:84:f2:10:46:d3:ee:96:
                    21:bf:47:0e:36:31:86:b3:41:76:96:01:61:d3:df:
                    73:16:48:53:9b:98:aa:d7:07:54:8d:aa:12:ba:9c:
                    d0:f6:55:dc:fe:b5:9c:a8:0d:d4:0d:f9:92:72:9d:
                    39:ab:7f:8c:01:43:51:f8:33:d0:11:ff:ed:13:b9:
                    82:31:86:67:f9:5f:e4:f1:59:2c:ed:8d:02:f2:65:
                    14:73:15:91:19:5d:4a:c1:d4:90:b8:0a:0d:b3:e7:
                    50:f8:3a:72:69:2d:fc:db:17:fe:6a:ad:1c:b0:aa:
                    63:f9:1c:4c:c7:60:d6:20:73:b6:93:fa:4c:8f:43:
                    6a:cc:6f:d0:1e:f7:d0:bc:6d:3d:4a:7c:db:a2:ff:
                    6d:f9:ec:8c:d0:44:b9:aa:06:b6:40:48:b8:49:8a:
                    45:1c:43:3e:1f:dc:e6:da:e7:2a:35:76:f5:46:0a:
                    3e:7b:52:ba:d6:bd:a1:92:d2:0d:35:ad:f4:d3:18:
                    7d:26:16:17:e8:b9:90:ff:e8:0e:e0:fd:42:1c:04:
                    64:e9:fa:94:53:83:6b:f7:2f:9d:c3:60:79:a8:9c:
                    c0:bd:d3
                Exponent: 65537 (0x10001)
        X509v3 extensions:
            X509v3 Basic Constraints: 
                CA:FALSE
            X509v3 Key Usage: 
                Digital Signature, Key Encipherment
            X509v3 Subject Alternative Name: 
                DNS:localhost
            X509v3 Subject Key Identifier: 
                55:36:FB:EA:6B:08:C1:7D:B1:5F:6A:49:4A:76:1B:99:B4:95:73:07
            X509v3 Authority Key Identifier: 
                3F:87:19:0A:2D:03:0B:BD:2A:F1:04:90:64:5E:31:7C:1E:5D:93:80
    Signature Algorithm: sha256WithRSAEncryption
    Signature Value:
        82:0c:3b:d7:a5:b6:f4:57:dc:11:bd:48:14:3d:3e:cf:0d:bc:
        db:8e:73:69:38:c3:ae:22:e6:43:ca:8a:d7:b6:4e:16:21:4a:
        c0:f7:58:77:71:94:84:be:df:d4:ca:54:53:94:75:8c:82:89:
        0d:b6:65:75:fb:6d:9b:32:8a:5b:9c:a6:2c:32:23:b5:3c:19:
        df:5d:d8:f5:23:82:fa:34:c5:c0:da:d3:ec:30:a0:d3:db:0d:
        c6:92:1e:97:68:50:41:87:2b:64:96:cf:04:d0:63:46:71:77:
        d3:d7:de:42:89:b6:b9:d0:11:72:3f:94:1b:dd:80:59:0e:42:
        64:91:45:ae:8e:c2:03:5b:7d:c6:10:b7:e3:3a:2f:38:79:9a:
        61:08:57:f1:a8:22:5a:a3:12:8e:33:47:ec:10:55:65:fd:23:
        c4:9a:7c:cb:b3:cd:5e:1e:85:d0:a4:9b:a1:66:f6:ec:a5:a4:
        08:09:57:9b:11:35:75:17:5b:c7:bb:84:19:87:fd:b4:84:d7:
        69:a6:0f:a8:b6:ea:37:b0:ad:a4:64:92:0e:d7:97:fa:a3:61:
        02:32:55:f0:ea:25:a6:10:0c:9c:4f:2a:0a:17:5b:ed:07:f9:
        26:1c:db:d5:41:b1:31:cc:3c:85:b9:0f:8a:8f:61:69:cb:11:
        ba:6a:11:93:d7:a6:5f:06:5e:ab:83:b1:65:ec:e2:03:77:c3:
        a0:10:1c:fb:fa:20:fd:59:2f:2b:85:03:d1:0f:ae:cd:da:91:
        2c:b3:f1:a8:79:33:bc:77:3b:d4:d0:4a:9d:85:32:ea:17:3a:
        44:32:39:a5:7c:d6:2f:6d:5c:11:be:17:b6:a9:79:96:2d:c8:
        5c:66:9e:51:7c:4e:9c:a8:5d:1f:b4:d5:1a:a2:54:da:d2:5a:
        df:7a:e8:db:ae:52:55:c1:63:70:4f:83:66:ab:37:52:97:8e:
        e6:dc:02:2f:c5:57:f8:91:5d:36:1b:8e:99:4a:68:2f:27:29:
        29:ad:57:7a:e6:8e:4b:22:98:d1:ff:b3:d9:ed:51:72:3f:79:
        0c:c8:46:34:9f:56:fa:cf:76:94:c9:f8:bb:e6:d2:8c:b1:a8:
        b3:f7:2e:4d:ba:fe:54:87:83:d2:a8:a5:5e:c3:8d:00:69:78:
        11:c1:8d:34:71:1d:88:3f:12:89:ae:c8:af:1f:b7:5d:2f:28:
        8a:8e:1e:c9:f6:c0:22:a5:b8:ce:89:fe:1e:73:97:6c:a9:68:
        7f:5c:97:da:db:41:d7:b6:fc:db:3c:64:13:13:90:a3:e1:e8:
        93:53:40:c4:6b:78:08:dd:c8:8a:86:1c:1f:15:58:70:36:12:
        a0:b0:c9:3e:b0:1b:d2:0f
-----BEGIN CERTIFICATE-----
MIIFzTCCA7WgAwIBAgIBBTANBgkqhkiG9w0BAQsFADBlMQswCQYDVQQGEwJJVDEQ
MA4GA1UECAwHVHVzY2FueTENMAsGA1UEBwwEUGlzYTEWMBQGA1UECgwNR2FjaGFB
bmRHYW1lczENMAsGA1UECwwERGJDQTEOMAwGA1UEAwwFRGIgQ0EwHhcNMjQxMjA1
MTEzNTIyWhcNMjcxMjA1MTEzNTIyWjB9MQswCQYDVQQGEwJJVDEQMA4GA1UECAwH
VHVzY2FueTENMAsGA1UEBwwEUGlzYTEWMBQGA1UECgwNR2FjaGFBbmRHYW1lczEQ
MA4GA1UECwwHRGV2ZWxvcDEjMCEGA1UEAwwac2VydmljZV9hdWN0aW9uX2RiX3By
aW1hcnkwggIiMA0GCSqGSIb3DQEBAQUAA4ICDwAwggIKAoICAQCi+9KvpleZ7w3U
LTsbCD/sXl4l0UPr0mgLuG1OuyahCmjmQuNbcf2Ht5qj+bbA2tO9askiHd7uUz5j
WwDyzem3yfO+jtgaxnfK9UJY7PS6GPDlWzqm/7raG9MVpGGcns7Ab+8mRTYm/Bik
71OlTsPJ7oK5mXTUzm1q7CVec7SJg8TKlJePAj0rvCKcPYsPGttayAPJxBU/yuXF
OvtOZO0mSubf+PWUAWpNBKgzjlm8oHd0q40qHojcNVItaQRVfB8Y5cfeSS1V/KtF
2764bAfu4OX9Zo+lPGkr5WTBtMVKvWujQ6a+RPBW6lWLgIboVTiLet+U0T/cVhRP
4zBzascXUS0+ILFSWTQj7ehLT1QJgE/fElTk5GlCf8n7GndP1bByZ3kKhPIQRtPu
liG/Rw42MYazQXaWAWHT33MWSFObmKrXB1SNqhK6nND2Vdz+tZyoDdQN+ZJynTmr
f4wBQ1H4M9AR/+0TuYIxhmf5X+TxWSztjQLyZRRzFZEZXUrB1JC4Cg2z51D4OnJp
LfzbF/5qrRywqmP5HEzHYNYgc7aT+kyPQ2rMb9Ae99C8bT1KfNui/2357IzQRLmq
BrZASLhJikUcQz4f3Oba5yo1dvVGCj57UrrWvaGS0g01rfTTGH0mFhfouZD/6A7g
/UIcBGTp+pRTg2v3L53DYHmonMC90wIDAQABo3AwbjAJBgNVHRMEAjAAMAsGA1Ud
DwQEAwIFoDAUBgNVHREEDTALgglsb2NhbGhvc3QwHQYDVR0OBBYEFFU2++prCMF9
sV9qSUp2G5m0lXMHMB8GA1UdIwQYMBaAFD+HGQotAwu9KvEEkGReMXweXZOAMA0G
CSqGSIb3DQEBCwUAA4ICAQCCDDvXpbb0V9wRvUgUPT7PDbzbjnNpOMOuIuZDyorX
tk4WIUrA91h3cZSEvt/UylRTlHWMgokNtmV1+22bMopbnKYsMiO1PBnfXdj1I4L6
NMXA2tPsMKDT2w3Gkh6XaFBBhytkls8E0GNGcXfT195Ciba50BFyP5Qb3YBZDkJk
kUWujsIDW33GELfjOi84eZphCFfxqCJaoxKOM0fsEFVl/SPEmnzLs81eHoXQpJuh
ZvbspaQICVebETV1F1vHu4QZh/20hNdppg+otuo3sK2kZJIO15f6o2ECMlXw6iWm
EAycTyoKF1vtB/kmHNvVQbExzDyFuQ+Kj2FpyxG6ahGT16ZfBl6rg7Fl7OIDd8Og
EBz7+iD9WS8rhQPRD67N2pEss/GoeTO8dzvU0EqdhTLqFzpEMjmlfNYvbVwRvhe2
qXmWLchcZp5RfE6cqF0ftNUaolTa0lrfeujbrlJVwWNwT4NmqzdSl47m3AIvxVf4
kV02G46ZSmgvJykprVd65o5LIpjR/7PZ7VFyP3kMyEY0n1b6z3aUyfi75tKMsaiz
9y5Nuv5Uh4PSqKVew40AaXgRwY00cR2IPxKJrsivH7ddLyiKjh7J9sAipbjOif4e
c5dsqWh/XJfa20HXtvzbPGQTE5Cj4eiTU0DEa3gI3ciKhhwfFVhwNhKgsMk+sBvS
Dw==
-----END CERTIFICATE-----
