Certificate:
    Data:
        Version: 3 (0x2)
        Serial Number: 8 (0x8)
        Signature Algorithm: sha256WithRSAEncryption
        Issuer: C=IT, ST=Tuscany, L=Pisa, O=GachaAndGames, OU=DbCA, CN=Db CA
        Validity
            Not Before: Dec  5 15:08:16 2024 GMT
            Not After : Dec  5 15:08:16 2027 GMT
        Subject: C=IT, ST=Tuscany, L=Pisa, O=GachaAndGames, OU=Develop, CN=service_currency_db_proxy
        Subject Public Key Info:
            Public Key Algorithm: rsaEncryption
                Public-Key: (4096 bit)
                Modulus:
                    00:82:84:dc:ad:ee:c6:6b:e5:0b:38:4c:db:59:70:
                    94:5b:c2:48:83:54:d5:96:22:f8:60:33:f9:c1:e0:
                    85:17:74:70:e6:c4:5c:53:28:a3:08:0b:38:29:1b:
                    2a:7d:c1:1d:f0:ff:32:0d:22:2f:32:38:c0:01:b4:
                    5b:2a:e0:6a:3b:c2:7d:3a:bf:06:75:80:9e:ff:8b:
                    d6:5e:73:c5:f4:bf:0e:5b:5c:45:73:da:86:07:bf:
                    73:25:5e:f1:a2:bf:34:20:98:c7:39:56:cc:2d:9c:
                    cf:37:ec:ad:27:9e:37:c6:7c:d1:84:1c:87:31:37:
                    79:46:94:f0:fc:66:4a:32:ca:86:82:0c:cb:87:a5:
                    ba:c5:26:13:4b:65:4d:3c:af:5d:d9:75:80:3a:78:
                    8b:6e:c2:4b:ba:96:19:5a:9e:35:57:ab:c8:b0:c0:
                    a5:f4:b1:64:e7:ea:d7:cd:38:8d:bc:a2:9e:b6:2b:
                    cf:7a:aa:a1:57:d3:83:e2:38:05:81:a6:0b:04:32:
                    4e:c1:ec:e3:42:c2:97:2e:31:9a:40:24:c0:66:5f:
                    4f:9b:bd:64:65:e3:1c:f6:1d:4c:ac:b5:d3:41:3b:
                    ef:ec:4a:b3:ef:4d:2c:68:a8:7a:37:11:22:44:72:
                    15:2a:f9:04:84:01:9d:73:4c:26:d7:46:11:3f:62:
                    2b:49:6e:99:c5:79:96:0b:cf:58:17:43:b4:86:aa:
                    2e:84:fc:38:74:fa:70:1c:4f:25:42:16:6b:80:d4:
                    be:4c:3b:9e:88:69:f8:9a:cd:e3:3a:f1:5d:a0:84:
                    46:2f:a6:40:aa:13:67:68:1e:73:a6:ec:89:7e:ef:
                    a1:ce:77:10:e8:e1:17:52:5e:c8:39:b9:49:d2:f3:
                    96:1d:38:ef:47:a8:c6:94:77:e8:96:b4:39:23:ca:
                    c6:6e:a6:c9:12:ef:5b:15:30:c1:0a:c8:53:b5:ea:
                    56:da:c2:00:d3:73:27:ad:93:48:e8:7d:f7:78:10:
                    f5:7e:5e:f7:af:13:f3:b0:17:70:22:78:14:2d:c0:
                    94:55:37:52:04:05:59:d7:ed:b3:e5:7e:ee:c7:57:
                    45:42:9a:28:22:21:0e:23:5d:eb:5d:d3:e1:1f:25:
                    b9:63:93:d6:e4:73:c9:16:30:55:2c:79:26:72:bf:
                    f7:45:7b:0f:0b:89:1e:5b:b9:56:f5:45:b0:c3:e8:
                    67:12:e3:cd:8b:93:07:e6:ef:2f:d3:ab:17:3b:fe:
                    83:77:ad:e9:2f:97:13:4b:79:58:5b:d2:65:dd:d4:
                    83:29:32:0d:89:99:7b:2d:97:dd:d0:04:14:65:6a:
                    6a:61:1c:10:87:dd:b2:06:87:fc:af:d1:dc:b3:a7:
                    34:3f:e1
                Exponent: 65537 (0x10001)
        X509v3 extensions:
            X509v3 Basic Constraints: 
                CA:FALSE
            X509v3 Key Usage: 
                Digital Signature, Key Encipherment
            X509v3 Subject Alternative Name: 
                DNS:localhost
            X509v3 Subject Key Identifier: 
                33:64:46:AF:C8:81:D1:E8:BE:17:04:20:B0:E9:C7:FF:93:0E:CE:F1
            X509v3 Authority Key Identifier: 
                3F:87:19:0A:2D:03:0B:BD:2A:F1:04:90:64:5E:31:7C:1E:5D:93:80
    Signature Algorithm: sha256WithRSAEncryption
    Signature Value:
        62:5b:fb:16:2a:ac:e0:2d:03:d5:5a:92:4f:15:20:82:36:96:
        15:4c:9c:44:02:65:03:e3:ed:b8:5f:77:4d:ca:87:77:dd:7f:
        97:15:22:7e:df:a6:88:ce:c1:5f:08:db:00:87:0c:39:35:7d:
        4f:56:43:ea:a1:e6:2a:f8:09:6b:b8:79:c5:83:80:bb:33:ef:
        22:18:6e:35:fe:5a:a7:43:ad:40:60:c7:e8:48:18:35:d6:15:
        a6:e0:76:d2:f9:1d:00:3c:bb:c9:7e:2c:0a:2e:a4:6a:77:11:
        75:ee:e8:24:37:67:eb:c5:61:ae:0e:67:ab:fd:1f:cc:c2:80:
        5a:8b:5f:27:d2:a3:7c:48:22:f7:4d:a0:4f:da:b4:eb:b1:d6:
        15:67:20:9c:3b:3c:46:a1:b4:4f:6a:00:c6:b1:df:c2:f8:e5:
        44:3d:9e:f9:ef:89:6b:ed:8e:6c:56:a3:bd:e5:38:d0:b9:4a:
        e7:ef:e8:bf:73:e8:b7:0a:89:30:9e:70:f8:8d:c1:03:6e:b4:
        8f:29:79:36:1e:6b:9a:a6:6c:39:5e:f3:f3:ae:04:62:69:31:
        a8:37:19:a6:a2:fd:37:d9:15:a9:81:f7:57:87:3b:13:df:4a:
        18:de:47:87:f2:1e:ab:91:be:d7:56:df:d9:69:f2:7a:3e:3e:
        9b:c9:c9:a8:5a:cb:c1:52:b0:38:22:b7:42:7b:81:b0:8f:eb:
        4e:d6:13:dd:50:bf:53:e6:11:b3:a4:73:e3:bf:20:9e:4f:09:
        c5:a3:6b:99:7e:fa:47:70:74:75:66:b4:99:7e:c8:89:79:bb:
        a3:cc:9e:09:75:8e:5f:d2:61:42:53:9f:5a:db:5b:7f:e6:50:
        84:43:c0:19:a8:ce:a4:cc:18:34:60:9f:30:bf:7d:4b:38:ef:
        8e:9c:12:ec:ff:e5:a5:da:23:b9:cd:00:20:b6:f3:aa:1b:d7:
        30:bc:29:f0:e4:6c:ba:06:00:2c:5c:a2:8a:35:2c:39:ee:09:
        a8:2f:79:bf:29:6c:c7:01:16:7b:79:d7:9a:77:5b:24:37:f8:
        a2:36:2c:0d:cb:28:aa:9c:e3:07:5c:05:84:28:06:1f:36:e1:
        4f:97:12:f6:a6:30:f0:5d:c0:04:1a:86:3a:64:3a:6c:dc:e3:
        d0:76:8d:c0:bb:2e:84:22:e1:bf:65:1f:70:33:77:5e:3e:78:
        b7:90:0d:14:fe:f9:bc:d5:01:c0:0d:a9:cb:ba:54:fb:a7:90:
        25:af:9b:ea:26:72:c0:49:25:8d:bc:c8:39:f9:d3:32:2f:0d:
        18:49:ab:a1:38:5d:bc:2e:2a:5e:f6:0e:2e:7f:9c:50:0e:b0:
        dd:88:6a:e3:8a:7d:d5:e0
-----BEGIN CERTIFICATE-----
MIIFzDCCA7SgAwIBAgIBCDANBgkqhkiG9w0BAQsFADBlMQswCQYDVQQGEwJJVDEQ
MA4GA1UECAwHVHVzY2FueTENMAsGA1UEBwwEUGlzYTEWMBQGA1UECgwNR2FjaGFB
bmRHYW1lczENMAsGA1UECwwERGJDQTEOMAwGA1UEAwwFRGIgQ0EwHhcNMjQxMjA1
MTUwODE2WhcNMjcxMjA1MTUwODE2WjB8MQswCQYDVQQGEwJJVDEQMA4GA1UECAwH
VHVzY2FueTENMAsGA1UEBwwEUGlzYTEWMBQGA1UECgwNR2FjaGFBbmRHYW1lczEQ
MA4GA1UECwwHRGV2ZWxvcDEiMCAGA1UEAwwZc2VydmljZV9jdXJyZW5jeV9kYl9w
cm94eTCCAiIwDQYJKoZIhvcNAQEBBQADggIPADCCAgoCggIBAIKE3K3uxmvlCzhM
21lwlFvCSINU1ZYi+GAz+cHghRd0cObEXFMoowgLOCkbKn3BHfD/Mg0iLzI4wAG0
WyrgajvCfTq/BnWAnv+L1l5zxfS/DltcRXPahge/cyVe8aK/NCCYxzlWzC2czzfs
rSeeN8Z80YQchzE3eUaU8PxmSjLKhoIMy4elusUmE0tlTTyvXdl1gDp4i27CS7qW
GVqeNVeryLDApfSxZOfq1804jbyinrYrz3qqoVfTg+I4BYGmCwQyTsHs40LCly4x
mkAkwGZfT5u9ZGXjHPYdTKy100E77+xKs+9NLGioejcRIkRyFSr5BIQBnXNMJtdG
ET9iK0lumcV5lgvPWBdDtIaqLoT8OHT6cBxPJUIWa4DUvkw7nohp+JrN4zrxXaCE
Ri+mQKoTZ2gec6bsiX7voc53EOjhF1JeyDm5SdLzlh0470eoxpR36Ja0OSPKxm6m
yRLvWxUwwQrIU7XqVtrCANNzJ62TSOh993gQ9X5e968T87AXcCJ4FC3AlFU3UgQF
Wdfts+V+7sdXRUKaKCIhDiNd613T4R8luWOT1uRzyRYwVSx5JnK/90V7DwuJHlu5
VvVFsMPoZxLjzYuTB+bvL9OrFzv+g3et6S+XE0t5WFvSZd3UgykyDYmZey2X3dAE
FGVqamEcEIfdsgaH/K/R3LOnND/hAgMBAAGjcDBuMAkGA1UdEwQCMAAwCwYDVR0P
BAQDAgWgMBQGA1UdEQQNMAuCCWxvY2FsaG9zdDAdBgNVHQ4EFgQUM2RGr8iB0ei+
FwQgsOnH/5MOzvEwHwYDVR0jBBgwFoAUP4cZCi0DC70q8QSQZF4xfB5dk4AwDQYJ
KoZIhvcNAQELBQADggIBAGJb+xYqrOAtA9Vakk8VIII2lhVMnEQCZQPj7bhfd03K
h3fdf5cVIn7fpojOwV8I2wCHDDk1fU9WQ+qh5ir4CWu4ecWDgLsz7yIYbjX+WqdD
rUBgx+hIGDXWFabgdtL5HQA8u8l+LAoupGp3EXXu6CQ3Z+vFYa4OZ6v9H8zCgFqL
XyfSo3xIIvdNoE/atOux1hVnIJw7PEahtE9qAMax38L45UQ9nvnviWvtjmxWo73l
ONC5Sufv6L9z6LcKiTCecPiNwQNutI8peTYea5qmbDle8/OuBGJpMag3Gaai/TfZ
FamB91eHOxPfShjeR4fyHquRvtdW39lp8no+PpvJyahay8FSsDgit0J7gbCP607W
E91Qv1PmEbOkc+O/IJ5PCcWja5l++kdwdHVmtJl+yIl5u6PMngl1jl/SYUJTn1rb
W3/mUIRDwBmozqTMGDRgnzC/fUs4746cEuz/5aXaI7nNACC286ob1zC8KfDkbLoG
ACxcooo1LDnuCagveb8pbMcBFnt515p3WyQ3+KI2LA3LKKqc4wdcBYQoBh824U+X
EvamMPBdwAQahjpkOmzc49B2jcC7LoQi4b9lH3Azd14+eLeQDRT++bzVAcANqcu6
VPunkCWvm+omcsBJJY28yDn50zIvDRhJq6E4XbwuKl72Di5/nFAOsN2IauOKfdXg
-----END CERTIFICATE-----
