Certificate:
    Data:
        Version: 3 (0x2)
        Serial Number: 12 (0xc)
        Signature Algorithm: sha256WithRSAEncryption
        Issuer: C=IT, ST=Tuscany, L=Pisa, O=GachaAndGames, OU=DbCA, CN=Db CA
        Validity
            Not Before: Dec  5 16:01:40 2024 GMT
            Not After : Dec  5 16:01:40 2027 GMT
        Subject: C=IT, ST=Tuscany, L=Pisa, O=GachaAndGames, OU=Develop, CN=service_feedback_db_proxy
        Subject Public Key Info:
            Public Key Algorithm: rsaEncryption
                Public-Key: (4096 bit)
                Modulus:
                    00:9f:db:d9:2e:a6:7b:2a:93:aa:56:10:e4:a9:1d:
                    c1:b4:a6:cb:63:b6:e6:c2:22:3d:75:0a:06:64:20:
                    fb:3f:26:70:e9:ea:f8:43:75:30:2a:58:8e:d9:01:
                    82:42:e3:3e:82:34:ce:fd:ba:b4:1d:53:f3:49:1d:
                    5f:d3:b9:e4:35:71:d0:ab:cf:e3:10:a0:78:a6:b0:
                    b8:a6:58:cd:f1:77:fa:8a:f7:3d:e2:8f:4f:bc:cc:
                    27:ec:0b:b2:fb:4f:c5:1c:f5:e3:8d:b1:bd:f4:32:
                    20:04:bf:d8:e4:87:0d:d8:c3:af:0a:39:14:37:85:
                    a6:7f:85:48:a3:2e:70:d9:a7:76:9f:f2:9e:14:28:
                    ac:b5:93:75:c4:34:c3:b8:9f:12:b5:6e:a0:c2:e2:
                    c1:1a:73:8c:dd:27:52:0f:2e:97:41:13:64:0e:71:
                    e6:f2:95:f8:cd:ac:c6:07:1a:e6:de:51:e0:ad:d2:
                    4a:e6:e6:8a:a8:6e:58:a5:e0:e1:73:57:48:b9:bb:
                    3c:8a:5b:d8:ef:8f:81:03:c8:af:3a:ae:a3:9e:d3:
                    ee:95:79:e8:0a:25:13:f9:4a:c1:c9:6f:ec:26:0a:
                    a7:3f:5a:d3:4d:fb:b4:01:f1:fd:d1:a3:fb:2c:c6:
                    34:23:f1:d4:55:03:39:b3:2d:1d:ac:a5:a5:c1:ff:
                    f3:19:cd:0f:a4:75:73:2e:58:5a:b2:2a:04:f6:0e:
                    9e:35:f4:3b:5b:91:0a:52:1f:4e:e1:30:15:26:1d:
                    16:c0:2d:f0:f2:2d:50:36:9b:07:11:03:fb:84:b5:
                    0d:95:91:fc:ef:0b:45:b5:f4:3b:69:3d:1d:6d:1e:
                    8a:df:22:b2:97:8f:35:d2:b3:07:4d:67:7f:90:da:
                    80:61:6e:3c:66:e4:7b:43:f6:90:98:1a:6e:75:b5:
                    a0:78:cf:53:91:ea:db:06:f9:6e:39:0e:93:cd:31:
                    0f:07:66:06:e5:d4:bd:8d:2b:e3:c9:a2:d5:9d:e7:
                    aa:3f:2a:33:39:66:ba:59:59:6e:de:9a:35:4f:3b:
                    1c:6a:8a:a7:9c:17:8b:45:90:34:b2:cb:79:51:ee:
                    f9:a7:ad:af:2a:40:f6:0e:67:40:21:9d:6f:90:01:
                    e7:9a:af:72:7d:c8:b4:a9:3e:66:3c:d6:62:e9:92:
                    5b:c2:0f:56:e8:f9:72:b0:6b:bd:c9:80:4f:20:53:
                    04:e7:49:aa:2a:79:9c:ac:3a:b4:42:05:4a:95:c7:
                    ff:c6:21:8c:76:14:a6:8a:a6:fb:9f:6a:33:c5:78:
                    14:d1:41:87:f5:b1:1f:d0:3b:dc:15:c2:a4:3b:6e:
                    ff:3a:23:d7:e7:c9:15:8a:b2:0f:3f:52:fa:92:4b:
                    f7:46:59
                Exponent: 65537 (0x10001)
        X509v3 extensions:
            X509v3 Basic Constraints: 
                CA:FALSE
            X509v3 Key Usage: 
                Digital Signature, Key Encipherment
            X509v3 Subject Alternative Name: 
                DNS:localhost
            X509v3 Subject Key Identifier: 
                6E:87:29:85:EC:ED:F9:1D:D2:4F:AA:3A:A7:7E:1C:65:68:C9:E1:C7
            X509v3 Authority Key Identifier: 
                3F:87:19:0A:2D:03:0B:BD:2A:F1:04:90:64:5E:31:7C:1E:5D:93:80
    Signature Algorithm: sha256WithRSAEncryption
    Signature Value:
        06:c8:f3:29:c3:85:a2:1c:2a:01:dc:c3:91:9a:01:bd:d2:79:
        39:cf:47:c6:31:03:a5:10:3d:e0:b9:70:68:f7:58:ad:c6:82:
        c1:de:b1:b7:d4:fd:53:1d:ac:6e:10:f9:79:98:63:27:77:5e:
        0e:3f:79:71:91:6f:ea:4d:6b:da:6f:5e:78:e3:f1:6b:e6:a8:
        a5:e2:44:6f:af:f7:5f:07:fd:84:e2:f0:59:80:d4:e2:14:75:
        ae:da:08:ac:93:72:6a:43:dc:90:6e:fd:e1:02:28:ee:01:d2:
        fb:da:03:3a:9e:1d:c8:49:b3:4a:f1:14:a9:8e:3d:64:f4:8e:
        43:b7:25:6c:69:53:9a:fa:13:34:ee:67:48:72:6a:25:6f:3a:
        cb:40:b0:6b:2d:25:61:e1:0a:ae:b0:7c:d6:28:bd:97:d2:d5:
        3f:39:99:84:6a:63:6c:a0:9a:b9:d5:31:3d:4b:72:23:f2:02:
        77:68:00:38:16:75:30:c3:16:30:a3:63:2f:7f:b0:a2:2a:ff:
        0d:e9:97:09:de:be:89:57:50:d8:98:d7:3c:2a:1d:de:4d:a7:
        ba:b7:de:b4:80:6f:63:17:33:fc:86:7a:a4:95:7e:71:e5:a2:
        5a:c4:89:2b:ea:21:0e:42:d9:aa:1d:35:cf:c8:96:39:38:e1:
        22:6f:4d:4f:c8:05:12:aa:d1:62:c3:09:a2:f4:94:33:6e:a7:
        61:80:c2:df:e2:6f:6a:a9:6c:dd:f0:d0:9d:6b:44:cc:38:e2:
        c5:b6:3e:0a:f9:db:a7:b3:e0:62:73:0b:60:15:d0:cd:5e:e7:
        1b:29:4c:07:2a:6c:c0:be:88:cd:fd:57:78:58:79:36:12:17:
        8c:e8:b8:ea:9c:33:15:9b:be:f3:56:f6:ff:e3:97:c2:90:40:
        f0:72:49:99:90:02:f7:2e:97:50:f4:25:36:3a:2e:fe:15:6d:
        f2:2d:8c:e9:8d:6e:3e:e6:52:2f:82:b6:35:85:8f:e6:97:d6:
        cc:73:5b:f3:71:7c:e0:d4:04:cc:4a:45:3b:ac:cf:61:30:31:
        36:e5:c5:7c:77:2f:39:5d:43:25:4b:97:80:6e:6e:dd:4c:84:
        4c:9f:72:dc:5e:1c:2d:c6:1a:17:f8:0a:c4:5f:25:e4:52:6a:
        6c:ad:8a:77:65:78:b7:f4:cd:df:5d:88:6e:00:ca:37:10:04:
        4e:f2:b8:13:07:2c:f3:05:73:5e:8b:c6:e3:a9:ad:a1:bf:b9:
        82:ef:69:92:d2:87:98:49:e3:ea:58:6d:e7:cd:0c:c5:75:2c:
        3a:07:ba:92:23:c8:a6:5a:c4:c2:76:ee:80:e5:c7:6b:a7:e8:
        5e:b9:fe:bd:12:e7:8d:d6
-----BEGIN CERTIFICATE-----
MIIFzDCCA7SgAwIBAgIBDDANBgkqhkiG9w0BAQsFADBlMQswCQYDVQQGEwJJVDEQ
MA4GA1UECAwHVHVzY2FueTENMAsGA1UEBwwEUGlzYTEWMBQGA1UECgwNR2FjaGFB
bmRHYW1lczENMAsGA1UECwwERGJDQTEOMAwGA1UEAwwFRGIgQ0EwHhcNMjQxMjA1
MTYwMTQwWhcNMjcxMjA1MTYwMTQwWjB8MQswCQYDVQQGEwJJVDEQMA4GA1UECAwH
VHVzY2FueTENMAsGA1UEBwwEUGlzYTEWMBQGA1UECgwNR2FjaGFBbmRHYW1lczEQ
MA4GA1UECwwHRGV2ZWxvcDEiMCAGA1UEAwwZc2VydmljZV9mZWVkYmFja19kYl9w
cm94eTCCAiIwDQYJKoZIhvcNAQEBBQADggIPADCCAgoCggIBAJ/b2S6meyqTqlYQ
5KkdwbSmy2O25sIiPXUKBmQg+z8mcOnq+EN1MCpYjtkBgkLjPoI0zv26tB1T80kd
X9O55DVx0KvP4xCgeKawuKZYzfF3+or3PeKPT7zMJ+wLsvtPxRz1442xvfQyIAS/
2OSHDdjDrwo5FDeFpn+FSKMucNmndp/ynhQorLWTdcQ0w7ifErVuoMLiwRpzjN0n
Ug8ul0ETZA5x5vKV+M2sxgca5t5R4K3SSubmiqhuWKXg4XNXSLm7PIpb2O+PgQPI
rzquo57T7pV56AolE/lKwclv7CYKpz9a0037tAHx/dGj+yzGNCPx1FUDObMtHayl
pcH/8xnND6R1cy5YWrIqBPYOnjX0O1uRClIfTuEwFSYdFsAt8PItUDabBxED+4S1
DZWR/O8LRbX0O2k9HW0eit8ispePNdKzB01nf5DagGFuPGbke0P2kJgabnW1oHjP
U5Hq2wb5bjkOk80xDwdmBuXUvY0r48mi1Z3nqj8qMzlmullZbt6aNU87HGqKp5wX
i0WQNLLLeVHu+aetrypA9g5nQCGdb5AB55qvcn3ItKk+ZjzWYumSW8IPVuj5crBr
vcmATyBTBOdJqip5nKw6tEIFSpXH/8YhjHYUpoqm+59qM8V4FNFBh/WxH9A73BXC
pDtu/zoj1+fJFYqyDz9S+pJL90ZZAgMBAAGjcDBuMAkGA1UdEwQCMAAwCwYDVR0P
BAQDAgWgMBQGA1UdEQQNMAuCCWxvY2FsaG9zdDAdBgNVHQ4EFgQUbocphezt+R3S
T6o6p34cZWjJ4ccwHwYDVR0jBBgwFoAUP4cZCi0DC70q8QSQZF4xfB5dk4AwDQYJ
KoZIhvcNAQELBQADggIBAAbI8ynDhaIcKgHcw5GaAb3SeTnPR8YxA6UQPeC5cGj3
WK3GgsHesbfU/VMdrG4Q+XmYYyd3Xg4/eXGRb+pNa9pvXnjj8WvmqKXiRG+v918H
/YTi8FmA1OIUda7aCKyTcmpD3JBu/eECKO4B0vvaAzqeHchJs0rxFKmOPWT0jkO3
JWxpU5r6EzTuZ0hyaiVvOstAsGstJWHhCq6wfNYovZfS1T85mYRqY2ygmrnVMT1L
ciPyAndoADgWdTDDFjCjYy9/sKIq/w3plwnevolXUNiY1zwqHd5Np7q33rSAb2MX
M/yGeqSVfnHlolrEiSvqIQ5C2aodNc/Iljk44SJvTU/IBRKq0WLDCaL0lDNup2GA
wt/ib2qpbN3w0J1rRMw44sW2Pgr526ez4GJzC2AV0M1e5xspTAcqbMC+iM39V3hY
eTYSF4zouOqcMxWbvvNW9v/jl8KQQPBySZmQAvcul1D0JTY6Lv4VbfItjOmNbj7m
Ui+CtjWFj+aX1sxzW/NxfODUBMxKRTusz2EwMTblxXx3LzldQyVLl4Bubt1MhEyf
ctxeHC3GGhf4CsRfJeRSamytindleLf0zd9diG4AyjcQBE7yuBMHLPMFc16LxuOp
raG/uYLvaZLSh5hJ4+pYbefNDMV1LDoHupIjyKZaxMJ27oDlx2un6F65/r0S543W
-----END CERTIFICATE-----
