Certificate:
    Data:
        Version: 3 (0x2)
        Serial Number: 14 (0xe)
        Signature Algorithm: sha256WithRSAEncryption
        Issuer: C=IT, ST=Tuscany, L=Pisa, O=GachaAndGames, OU=DbCA, CN=Db CA
        Validity
            Not Before: Dec  5 17:33:03 2024 GMT
            Not After : Dec  5 17:33:03 2027 GMT
        Subject: C=IT, ST=Tuscany, L=Pisa, O=GachaAndGames, OU=Develop, CN=service_gacha_db_replica
        Subject Public Key Info:
            Public Key Algorithm: rsaEncryption
                Public-Key: (4096 bit)
                Modulus:
                    00:98:19:7e:27:cd:97:f1:4b:40:2f:d9:02:1c:33:
                    97:44:a6:67:64:9c:d9:34:8b:40:17:1d:59:61:de:
                    b7:60:58:b4:0b:19:d4:29:cb:34:ba:ed:d3:b0:b2:
                    22:6a:01:81:93:9f:7e:e5:a5:ca:9e:97:35:32:65:
                    52:a5:19:00:69:c4:ec:5c:22:1c:93:ce:85:68:73:
                    27:1d:fe:fd:9d:6e:49:ac:25:a9:dd:69:48:26:0d:
                    76:c3:5d:56:06:03:5e:71:07:d8:57:e7:93:95:13:
                    ab:42:df:1d:74:63:dd:d4:7c:10:5c:ea:ea:6c:53:
                    f0:44:17:76:40:c4:59:11:8d:ba:a6:47:38:39:31:
                    4f:1b:fe:d5:78:b2:a6:c8:bb:ab:ed:a7:5d:a8:05:
                    72:e3:86:16:7f:dd:3c:66:58:cd:79:42:65:f9:79:
                    85:0f:eb:35:bf:f7:b7:5c:64:cd:f7:2b:a1:5d:04:
                    1d:21:6e:a1:f9:ed:5c:01:d2:28:18:84:9f:80:53:
                    98:6a:07:35:09:03:ea:79:20:c7:be:89:b2:72:cc:
                    77:d6:b0:bc:fa:3a:3e:ea:a4:9e:3f:d4:16:de:88:
                    ef:f9:02:0c:ad:c3:8b:61:7e:99:aa:1b:89:90:e8:
                    22:9a:8a:90:f6:7d:fe:f9:16:68:95:c9:9c:6d:e7:
                    fa:f8:4a:ee:4e:eb:41:b9:b1:cf:ae:c9:6b:bb:e3:
                    9a:b5:3d:c9:e6:06:c6:98:67:bb:1c:9a:24:0b:25:
                    1d:03:05:c9:e5:9d:dc:ec:eb:79:dd:6e:20:1e:84:
                    92:9e:22:8b:b0:5f:ad:df:87:25:e8:4d:36:bd:25:
                    df:f5:b6:f4:81:41:22:6d:0f:1b:5d:f6:2c:d2:40:
                    da:af:0b:eb:40:c5:d8:0d:d9:c6:9d:ae:0e:07:89:
                    cc:b8:b0:d3:b0:97:b6:04:ca:c1:fb:4c:57:9b:b9:
                    89:36:40:57:41:33:4a:3f:9d:95:7f:03:f0:30:4a:
                    47:5e:c5:fc:36:83:b1:56:fd:e7:74:cb:10:63:df:
                    af:5c:d9:ca:4b:87:08:a1:d3:80:c8:03:69:6a:89:
                    ab:4f:ed:52:7d:d8:e6:d1:f7:09:b7:a9:57:4f:75:
                    b7:69:c9:94:a7:1f:1a:33:4c:37:01:cf:3b:b2:a9:
                    5f:7e:5b:5e:d2:6f:8c:22:f9:da:60:d9:5a:9f:32:
                    a9:73:c9:79:9f:8c:05:eb:0d:d5:ef:0c:93:21:10:
                    e4:43:63:d0:b5:2e:7f:a9:b7:5c:dd:de:a1:e3:f6:
                    c9:93:ed:39:8d:94:a1:67:68:57:de:ab:26:df:4a:
                    e9:7f:fc:57:9e:f3:57:aa:cc:0d:e4:c7:2b:fc:2d:
                    2a:c8:a3
                Exponent: 65537 (0x10001)
        X509v3 extensions:
            X509v3 Basic Constraints: 
                CA:FALSE
            X509v3 Key Usage: 
                Digital Signature, Key Encipherment
            X509v3 Subject Alternative Name: 
                DNS:localhost
            X509v3 Subject Key Identifier: 
                23:5B:2E:F6:99:89:CD:77:72:ED:4B:B7:73:F5:02:4E:D8:D3:C3:6E
            X509v3 Authority Key Identifier: 
                3F:87:19:0A:2D:03:0B:BD:2A:F1:04:90:64:5E:31:7C:1E:5D:93:80
    Signature Algorithm: sha256WithRSAEncryption
    Signature Value:
        48:8b:b0:9c:ae:dd:cc:5d:c2:6c:37:f3:13:83:30:98:1d:e3:
        52:25:2d:2d:39:9d:0c:fd:66:32:14:a1:bd:88:11:8c:fe:0f:
        b9:62:40:61:1f:6d:81:0d:91:33:89:c1:38:32:63:d2:21:27:
        32:ae:a0:7b:e0:8f:15:c2:23:1d:58:ed:3a:98:73:85:25:d4:
        c7:12:15:8e:d5:45:b9:22:29:a6:6b:03:4c:ca:62:45:da:87:
        d0:22:d7:d8:0f:ef:99:46:08:a7:67:72:b4:af:29:8d:67:92:
        f2:26:fa:5c:ac:e1:d8:4e:0f:79:c0:f5:54:78:7d:46:b6:70:
        82:14:80:f8:af:3f:0f:80:6d:9c:67:63:d2:d3:12:83:15:eb:
        46:49:60:e4:0e:05:f3:fc:25:01:a8:d6:c7:3e:cf:15:3c:c6:
        4d:ee:6f:76:c7:07:dd:7d:69:c6:ab:17:0d:99:cc:77:55:85:
        f4:09:68:2f:2d:fc:9e:31:d7:17:7c:cc:1e:fc:62:e1:40:c8:
        e9:c5:ec:bc:8d:b6:1f:a7:de:1e:86:41:a7:ea:f9:6f:5e:38:
        7c:39:ad:d3:6c:77:78:fb:b0:dc:ff:35:fa:9a:12:78:d2:83:
        a9:73:b2:1b:cd:32:da:4e:50:10:f9:1e:0c:85:18:d2:09:bb:
        36:9e:75:0d:ab:b6:58:aa:eb:52:e7:c0:85:d2:33:40:b1:d4:
        d4:44:cf:a9:3b:f7:0f:3b:6d:55:b6:bc:eb:13:73:21:a9:22:
        1a:77:55:5c:cf:38:57:d0:ee:e1:4f:03:6e:98:ee:09:1a:74:
        9c:8c:7c:34:b0:26:b8:4a:cd:5e:ef:1d:83:b2:21:e0:c9:25:
        0e:a6:0f:03:40:63:fa:be:b2:3d:b5:24:5c:71:71:b1:28:ee:
        4f:c8:c2:ad:78:87:3e:ad:5d:50:4a:4f:47:46:c8:8b:27:cd:
        5c:8b:c6:f6:7b:24:dd:84:08:5c:cc:19:61:cb:9a:1f:0c:aa:
        52:c6:8c:8f:e3:6b:d6:d0:b3:21:bb:cc:80:bd:4a:93:db:6f:
        56:89:95:e5:55:20:70:8d:23:06:65:ec:fb:6f:53:b5:5e:98:
        16:e3:f2:b8:3e:5a:b6:bb:3b:ec:b8:93:d7:73:26:b2:07:ef:
        24:b9:c8:d1:e3:43:08:e2:1e:2d:f8:76:41:6e:7e:c9:97:63:
        1b:20:bf:99:e8:a8:e2:f3:d5:a1:f4:3e:e4:26:8c:62:5a:33:
        71:8e:86:04:28:c9:2c:3a:3a:61:91:4b:79:95:20:e6:d2:70:
        2c:94:4f:a4:6f:9c:94:27:4b:2c:76:79:9a:23:c6:25:f9:97:
        25:38:a0:34:42:4a:34:0e
-----BEGIN CERTIFICATE-----
MIIFyzCCA7OgAwIBAgIBDjANBgkqhkiG9w0BAQsFADBlMQswCQYDVQQGEwJJVDEQ
MA4GA1UECAwHVHVzY2FueTENMAsGA1UEBwwEUGlzYTEWMBQGA1UECgwNR2FjaGFB
bmRHYW1lczENMAsGA1UECwwERGJDQTEOMAwGA1UEAwwFRGIgQ0EwHhcNMjQxMjA1
MTczMzAzWhcNMjcxMjA1MTczMzAzWjB7MQswCQYDVQQGEwJJVDEQMA4GA1UECAwH
VHVzY2FueTENMAsGA1UEBwwEUGlzYTEWMBQGA1UECgwNR2FjaGFBbmRHYW1lczEQ
MA4GA1UECwwHRGV2ZWxvcDEhMB8GA1UEAwwYc2VydmljZV9nYWNoYV9kYl9yZXBs
aWNhMIICIjANBgkqhkiG9w0BAQEFAAOCAg8AMIICCgKCAgEAmBl+J82X8UtAL9kC
HDOXRKZnZJzZNItAFx1ZYd63YFi0CxnUKcs0uu3TsLIiagGBk59+5aXKnpc1MmVS
pRkAacTsXCIck86FaHMnHf79nW5JrCWp3WlIJg12w11WBgNecQfYV+eTlROrQt8d
dGPd1HwQXOrqbFPwRBd2QMRZEY26pkc4OTFPG/7VeLKmyLur7addqAVy44YWf908
ZljNeUJl+XmFD+s1v/e3XGTN9yuhXQQdIW6h+e1cAdIoGISfgFOYagc1CQPqeSDH
vomycsx31rC8+jo+6qSeP9QW3ojv+QIMrcOLYX6ZqhuJkOgimoqQ9n3++RZolcmc
bef6+EruTutBubHPrslru+OatT3J5gbGmGe7HJokCyUdAwXJ5Z3c7Ot53W4gHoSS
niKLsF+t34cl6E02vSXf9bb0gUEibQ8bXfYs0kDarwvrQMXYDdnGna4OB4nMuLDT
sJe2BMrB+0xXm7mJNkBXQTNKP52VfwPwMEpHXsX8NoOxVv3ndMsQY9+vXNnKS4cI
odOAyANpaomrT+1Sfdjm0fcJt6lXT3W3acmUpx8aM0w3Ac87sqlfflte0m+MIvna
YNlanzKpc8l5n4wF6w3V7wyTIRDkQ2PQtS5/qbdc3d6h4/bJk+05jZShZ2hX3qsm
30rpf/xXnvNXqswN5Mcr/C0qyKMCAwEAAaNwMG4wCQYDVR0TBAIwADALBgNVHQ8E
BAMCBaAwFAYDVR0RBA0wC4IJbG9jYWxob3N0MB0GA1UdDgQWBBQjWy72mYnNd3Lt
S7dz9QJO2NPDbjAfBgNVHSMEGDAWgBQ/hxkKLQMLvSrxBJBkXjF8Hl2TgDANBgkq
hkiG9w0BAQsFAAOCAgEASIuwnK7dzF3CbDfzE4MwmB3jUiUtLTmdDP1mMhShvYgR
jP4PuWJAYR9tgQ2RM4nBODJj0iEnMq6ge+CPFcIjHVjtOphzhSXUxxIVjtVFuSIp
pmsDTMpiRdqH0CLX2A/vmUYIp2dytK8pjWeS8ib6XKzh2E4PecD1VHh9RrZwghSA
+K8/D4BtnGdj0tMSgxXrRklg5A4F8/wlAajWxz7PFTzGTe5vdscH3X1pxqsXDZnM
d1WF9AloLy38njHXF3zMHvxi4UDI6cXsvI22H6feHoZBp+r5b144fDmt02x3ePuw
3P81+poSeNKDqXOyG80y2k5QEPkeDIUY0gm7Np51Dau2WKrrUufAhdIzQLHU1ETP
qTv3DzttVba86xNzIakiGndVXM84V9Du4U8DbpjuCRp0nIx8NLAmuErNXu8dg7Ih
4MklDqYPA0Bj+r6yPbUkXHFxsSjuT8jCrXiHPq1dUEpPR0bIiyfNXIvG9nsk3YQI
XMwZYcuaHwyqUsaMj+Nr1tCzIbvMgL1Kk9tvVomV5VUgcI0jBmXs+29TtV6YFuPy
uD5atrs77LiT13MmsgfvJLnI0eNDCOIeLfh2QW5+yZdjGyC/meio4vPVofQ+5CaM
YlozcY6GBCjJLDo6YZFLeZUg5tJwLJRPpG+clCdLLHZ5miPGJfmXJTigNEJKNA4=
-----END CERTIFICATE-----
