Certificate:
    Data:
        Version: 3 (0x2)
        Serial Number: 15 (0xf)
        Signature Algorithm: sha256WithRSAEncryption
        Issuer: C=IT, ST=Tuscany, L=Pisa, O=GachaAndGames, OU=DbCA, CN=Db CA
        Validity
            Not Before: Dec  5 17:33:30 2024 GMT
            Not After : Dec  5 17:33:30 2027 GMT
        Subject: C=IT, ST=Tuscany, L=Pisa, O=GachaAndGames, OU=Develop, CN=service_gacha_db_proxy
        Subject Public Key Info:
            Public Key Algorithm: rsaEncryption
                Public-Key: (4096 bit)
                Modulus:
                    00:c5:c6:84:25:6b:b6:b8:87:c7:25:43:ea:c4:b5:
                    50:b9:2c:79:b0:56:4d:cc:e4:4c:78:2e:c4:44:56:
                    54:d5:32:95:b1:2d:aa:c2:d4:78:3e:3f:fb:cc:05:
                    38:fd:1a:0e:19:ff:da:80:05:84:5b:e4:2b:69:af:
                    a7:a6:f6:7a:33:6f:bc:21:58:43:45:9e:dc:bd:ee:
                    06:f7:7f:0b:d8:81:45:20:66:cc:c8:88:f4:12:20:
                    e1:d7:a9:7b:41:df:33:31:59:91:43:24:05:16:74:
                    c3:d3:b7:58:b1:a4:4f:46:9b:d7:98:d6:4a:bc:88:
                    3a:a7:95:93:8d:71:1a:54:a7:9d:65:bf:29:d3:b5:
                    e7:d9:5c:25:bc:c0:e4:1a:38:28:67:52:c4:52:72:
                    03:27:76:09:8d:10:04:5b:fe:c1:3b:0a:e5:39:dd:
                    6e:ae:29:cd:8f:d8:4e:15:66:14:7e:50:cb:ad:72:
                    f6:4a:18:1e:f6:8f:f8:47:a8:24:12:21:16:2d:eb:
                    c0:2b:9a:11:1d:af:06:e2:3a:a2:bb:ae:8e:8a:87:
                    e4:04:1c:f5:98:a7:f6:18:0a:e7:a1:1f:42:a0:5a:
                    4d:34:e2:d3:4c:b0:ac:dc:19:f4:51:61:ab:10:d3:
                    74:62:54:a8:2b:f4:16:b7:de:d5:bd:87:2b:32:d4:
                    86:48:91:84:f3:6b:34:29:0f:dc:3d:74:40:cd:02:
                    dc:43:45:1b:f6:ae:bb:e7:c5:a1:56:cc:48:be:37:
                    18:5f:c6:6a:16:25:4e:95:b5:39:a4:f6:68:3a:dc:
                    9c:88:70:6b:fe:a3:ea:7a:4f:ac:92:92:9f:7e:f3:
                    cd:c5:44:21:d0:93:88:89:1e:56:d6:b3:db:c8:17:
                    21:89:2b:4a:76:6b:ac:c9:e4:56:a8:8d:ca:12:8f:
                    b3:20:a0:6a:b0:0d:fc:f1:31:3a:2f:ee:35:0b:05:
                    00:42:23:ae:c0:64:64:d2:d0:69:1d:fa:e0:83:4e:
                    ef:6b:b0:2c:0d:73:7c:85:a1:83:f8:ab:92:b7:c8:
                    c5:50:ce:58:81:11:ff:07:2b:c2:b8:a2:fb:1a:04:
                    08:78:91:6a:20:d7:18:b1:88:60:2d:7d:e0:aa:34:
                    f3:31:f2:a3:f9:f8:57:46:20:69:ea:1b:b9:65:02:
                    fc:a5:84:7f:03:25:6e:06:d5:b1:a6:56:55:59:28:
                    2c:df:4d:34:68:bb:88:84:bb:96:d4:f1:cf:9b:cd:
                    9e:89:74:8d:63:9c:0c:ff:bb:9a:e7:28:87:4e:f6:
                    b6:9b:52:b2:21:24:23:64:d1:de:ad:ce:c9:a8:fa:
                    12:f0:a3:89:ca:75:c6:96:0c:38:b7:21:54:7a:13:
                    8e:c3:bb
                Exponent: 65537 (0x10001)
        X509v3 extensions:
            X509v3 Basic Constraints: 
                CA:FALSE
            X509v3 Key Usage: 
                Digital Signature, Key Encipherment
            X509v3 Subject Alternative Name: 
                DNS:localhost
            X509v3 Subject Key Identifier: 
                5F:32:FC:77:2F:1D:EC:8E:A9:3F:F7:25:72:B4:5D:BB:FC:D9:94:3F
            X509v3 Authority Key Identifier: 
                3F:87:19:0A:2D:03:0B:BD:2A:F1:04:90:64:5E:31:7C:1E:5D:93:80
    Signature Algorithm: sha256WithRSAEncryption
    Signature Value:
        1c:e7:5f:2a:0b:78:68:43:14:cb:0d:fc:2b:ed:94:4d:0c:d7:
        22:a2:ba:0c:15:6a:56:8a:88:28:09:58:04:2f:67:d0:28:a0:
        9e:3f:33:c6:6d:42:fc:1a:fa:ca:c8:7f:8c:e1:d4:d1:74:df:
        b9:b7:02:b3:97:44:e3:a8:6a:90:22:f3:79:8e:20:b7:17:e3:
        40:c4:41:6c:49:d5:35:d1:2f:df:ce:e2:35:bd:61:0a:13:37:
        36:45:fd:b2:49:64:27:37:00:8e:0a:60:5e:2e:e0:80:ab:2b:
        f9:42:fa:6a:2c:14:dc:76:c7:bb:d3:1e:db:67:41:bc:ea:59:
        4b:56:6b:fc:ca:6f:a8:cf:67:f1:54:bf:39:72:45:7e:ef:08:
        32:71:1d:14:ab:05:32:10:48:60:f9:9e:c9:4c:f5:ab:7f:29:
        02:73:4b:a7:2c:67:b9:7e:5a:38:bc:cd:f3:f5:8e:1b:82:c7:
        b4:08:79:d9:06:f6:eb:90:39:8e:ae:38:db:73:f3:1c:36:d2:
        e7:21:7a:eb:4c:c4:3e:94:0f:42:e0:98:6a:2e:f8:9b:d6:e1:
        36:1f:74:1e:a2:2e:97:07:4a:69:fe:5a:ab:00:86:13:85:01:
        5b:ec:03:30:e3:b2:19:26:dc:dd:19:e6:ea:ba:18:8d:0e:41:
        56:59:85:51:58:2e:7e:60:a3:12:13:60:1a:49:31:20:82:b5:
        9d:d0:52:9f:97:fe:44:14:a3:89:b4:14:3c:d6:9f:76:5e:20:
        a7:b2:98:78:7f:12:8b:4e:9e:eb:43:f5:d0:8b:a5:ef:13:56:
        6a:bf:26:af:53:48:56:33:99:c2:13:e0:9a:6d:3c:a8:6c:b6:
        11:fb:7e:63:33:af:b0:dd:06:ed:6d:59:f8:14:22:2a:c3:1f:
        58:d2:87:9e:b4:d9:aa:de:c7:cf:2f:22:36:2e:1b:db:65:bf:
        b4:f8:f3:a3:29:43:55:a5:dd:83:b1:53:e1:e1:9d:e2:90:6f:
        01:c5:1f:53:ef:a5:07:34:c3:ac:d2:e1:75:b5:84:c8:1c:cd:
        76:f1:17:6f:fa:2e:33:2d:8d:e2:11:4e:38:17:03:95:a8:ac:
        44:1f:76:7a:4b:50:8c:75:4f:97:1a:a0:3d:81:6c:fd:72:b1:
        1a:26:47:a3:5b:f1:5c:47:69:e6:bd:67:5b:54:7f:3e:07:a8:
        c0:ee:3f:16:04:1d:6b:f4:97:c9:0a:e4:ba:82:74:38:ae:9b:
        02:a1:fb:68:c4:2b:3d:c2:b2:1d:b9:f0:e0:4f:0d:47:2f:ad:
        1b:b7:c7:a0:43:c8:8e:6c:7c:37:6a:f9:77:1c:24:b1:71:07:
        32:54:5d:fe:8c:2e:d1:b5
-----BEGIN CERTIFICATE-----
MIIFyTCCA7GgAwIBAgIBDzANBgkqhkiG9w0BAQsFADBlMQswCQYDVQQGEwJJVDEQ
MA4GA1UECAwHVHVzY2FueTENMAsGA1UEBwwEUGlzYTEWMBQGA1UECgwNR2FjaGFB
bmRHYW1lczENMAsGA1UECwwERGJDQTEOMAwGA1UEAwwFRGIgQ0EwHhcNMjQxMjA1
MTczMzMwWhcNMjcxMjA1MTczMzMwWjB5MQswCQYDVQQGEwJJVDEQMA4GA1UECAwH
VHVzY2FueTENMAsGA1UEBwwEUGlzYTEWMBQGA1UECgwNR2FjaGFBbmRHYW1lczEQ
MA4GA1UECwwHRGV2ZWxvcDEfMB0GA1UEAwwWc2VydmljZV9nYWNoYV9kYl9wcm94
eTCCAiIwDQYJKoZIhvcNAQEBBQADggIPADCCAgoCggIBAMXGhCVrtriHxyVD6sS1
ULksebBWTczkTHguxERWVNUylbEtqsLUeD4/+8wFOP0aDhn/2oAFhFvkK2mvp6b2
ejNvvCFYQ0We3L3uBvd/C9iBRSBmzMiI9BIg4depe0HfMzFZkUMkBRZ0w9O3WLGk
T0ab15jWSryIOqeVk41xGlSnnWW/KdO159lcJbzA5Bo4KGdSxFJyAyd2CY0QBFv+
wTsK5Tndbq4pzY/YThVmFH5Qy61y9koYHvaP+EeoJBIhFi3rwCuaER2vBuI6oruu
joqH5AQc9Zin9hgK56EfQqBaTTTi00ywrNwZ9FFhqxDTdGJUqCv0Frfe1b2HKzLU
hkiRhPNrNCkP3D10QM0C3ENFG/auu+fFoVbMSL43GF/GahYlTpW1OaT2aDrcnIhw
a/6j6npPrJKSn37zzcVEIdCTiIkeVtaz28gXIYkrSnZrrMnkVqiNyhKPsyCgarAN
/PExOi/uNQsFAEIjrsBkZNLQaR364INO72uwLA1zfIWhg/irkrfIxVDOWIER/wcr
wrii+xoECHiRaiDXGLGIYC194Ko08zHyo/n4V0YgaeobuWUC/KWEfwMlbgbVsaZW
VVkoLN9NNGi7iIS7ltTxz5vNnol0jWOcDP+7mucoh072tptSsiEkI2TR3q3Oyaj6
EvCjicp1xpYMOLchVHoTjsO7AgMBAAGjcDBuMAkGA1UdEwQCMAAwCwYDVR0PBAQD
AgWgMBQGA1UdEQQNMAuCCWxvY2FsaG9zdDAdBgNVHQ4EFgQUXzL8dy8d7I6pP/cl
crRdu/zZlD8wHwYDVR0jBBgwFoAUP4cZCi0DC70q8QSQZF4xfB5dk4AwDQYJKoZI
hvcNAQELBQADggIBABznXyoLeGhDFMsN/CvtlE0M1yKiugwValaKiCgJWAQvZ9Ao
oJ4/M8ZtQvwa+srIf4zh1NF037m3ArOXROOoapAi83mOILcX40DEQWxJ1TXRL9/O
4jW9YQoTNzZF/bJJZCc3AI4KYF4u4ICrK/lC+mosFNx2x7vTHttnQbzqWUtWa/zK
b6jPZ/FUvzlyRX7vCDJxHRSrBTIQSGD5nslM9at/KQJzS6csZ7l+Wji8zfP1jhuC
x7QIedkG9uuQOY6uONtz8xw20ucheutMxD6UD0LgmGou+JvW4TYfdB6iLpcHSmn+
WqsAhhOFAVvsAzDjshkm3N0Z5uq6GI0OQVZZhVFYLn5goxITYBpJMSCCtZ3QUp+X
/kQUo4m0FDzWn3ZeIKeymHh/EotOnutD9dCLpe8TVmq/Jq9TSFYzmcIT4JptPKhs
thH7fmMzr7DdBu1tWfgUIirDH1jSh5602arex88vIjYuG9tlv7T486MpQ1Wl3YOx
U+HhneKQbwHFH1PvpQc0w6zS4XW1hMgczXbxF2/6LjMtjeIRTjgXA5WorEQfdnpL
UIx1T5caoD2BbP1ysRomR6Nb8VxHaea9Z1tUfz4HqMDuPxYEHWv0l8kK5LqCdDiu
mwKh+2jEKz3Csh258OBPDUcvrRu3x6BDyI5sfDdq+XccJLFxBzJUXf6MLtG1
-----END CERTIFICATE-----
