Certificate:
    Data:
        Version: 3 (0x2)
        Serial Number: 16 (0x10)
        Signature Algorithm: sha256WithRSAEncryption
        Issuer: C=IT, ST=Tuscany, L=Pisa, O=GachaAndGames, OU=DbCA, CN=Db CA
        Validity
            Not Before: Dec  5 19:10:59 2024 GMT
            Not After : Dec  5 19:10:59 2027 GMT
        Subject: C=IT, ST=Tuscany, L=Pisa, O=inventoryAndGames, OU=Develop, CN=service_inventory_db_primary
        Subject Public Key Info:
            Public Key Algorithm: rsaEncryption
                Public-Key: (4096 bit)
                Modulus:
                    00:b2:98:2b:03:44:5c:88:2b:90:8e:c3:e2:c4:45:
                    ef:18:66:86:69:b2:45:c1:5c:41:7e:b2:12:6e:a8:
                    af:27:60:f1:f3:61:ee:df:42:64:05:ad:98:c2:78:
                    df:c2:14:0c:ed:dc:7a:c0:f1:8c:c2:54:8a:b3:71:
                    21:a1:4a:1f:2f:e7:55:a9:ed:40:64:07:0a:1e:2e:
                    ac:15:ad:fe:ce:91:84:5e:f0:5f:3a:66:80:4a:bd:
                    a6:ee:35:22:1c:5b:c2:61:2e:97:59:31:85:fe:42:
                    0f:47:98:77:2b:6a:07:cb:0c:98:3c:1c:af:79:7f:
                    10:a5:5c:70:27:d3:8e:e3:61:09:00:46:61:c2:8d:
                    6d:49:95:29:8c:1f:e2:7b:4f:89:9d:a9:81:37:80:
                    57:36:94:19:08:49:c0:57:ce:bc:fb:75:87:6a:d5:
                    4f:ca:e6:78:63:1c:b9:29:a3:18:b4:9c:43:12:89:
                    5c:78:90:8a:32:af:9b:c2:d6:22:94:77:10:74:56:
                    a7:e5:29:01:a6:ad:a4:16:56:f0:c2:23:e3:09:53:
                    49:05:bc:0b:4a:40:38:8e:34:65:04:87:d8:c9:0f:
                    fe:21:5d:1b:27:71:3a:75:eb:83:dd:82:73:3b:52:
                    18:67:f0:33:d9:66:db:c6:42:d3:d4:ce:18:20:9d:
                    50:ae:29:c1:42:56:50:2f:45:7a:8a:c8:5d:c7:c6:
                    86:db:c3:a4:bc:f9:77:fe:ef:36:99:3e:e0:ec:e4:
                    f7:36:40:d2:57:14:54:6f:7c:ff:0e:e5:c9:57:bf:
                    50:56:25:55:cb:7c:a5:be:dc:d8:bf:66:a4:01:f2:
                    d3:5a:fb:8d:29:40:e6:23:de:53:2e:bd:39:c6:b6:
                    6a:f0:e2:10:3a:41:00:1d:5d:ba:6e:37:64:6a:09:
                    76:61:7a:3e:29:d4:1d:95:7c:c4:01:80:89:42:f9:
                    f0:bf:a8:86:bd:de:42:9b:fa:00:82:5e:3a:87:cc:
                    f8:ee:b2:1e:f2:bb:81:a0:2b:33:80:49:7a:d1:36:
                    26:e8:43:be:b6:af:cb:8f:1d:e2:25:08:41:bc:a7:
                    05:da:95:b6:1e:8f:a9:61:9d:07:7d:44:7f:2c:50:
                    7e:bd:fd:9f:5c:99:08:3f:17:b3:6a:2d:47:10:f9:
                    5e:b0:bf:96:e6:13:0c:4a:44:39:01:a8:de:a1:cc:
                    9c:38:a3:a6:30:ee:33:d6:bc:28:e6:d7:b2:41:08:
                    80:43:21:c4:ed:7a:24:7f:68:c2:f2:8a:05:3b:36:
                    2d:28:0f:24:d0:b1:10:3c:c5:59:5c:19:95:55:cc:
                    e6:31:7d:ed:b1:ae:fe:85:3f:03:2e:6b:93:cc:ce:
                    45:04:01
                Exponent: 65537 (0x10001)
        X509v3 extensions:
            X509v3 Basic Constraints: 
                CA:FALSE
            X509v3 Key Usage: 
                Digital Signature, Key Encipherment
            X509v3 Subject Alternative Name: 
                DNS:localhost
            X509v3 Subject Key Identifier: 
                AF:75:37:AC:C6:2D:64:B3:D3:61:79:57:46:7A:BB:99:87:FA:65:2D
            X509v3 Authority Key Identifier: 
                3F:87:19:0A:2D:03:0B:BD:2A:F1:04:90:64:5E:31:7C:1E:5D:93:80
    Signature Algorithm: sha256WithRSAEncryption
    Signature Value:
        08:3b:a9:7c:15:24:37:b0:63:52:42:ba:55:5d:0a:89:0f:a2:
        59:f0:2e:3e:13:f3:be:f0:92:0f:e7:ef:8c:86:11:e2:09:54:
        88:17:43:b6:16:9a:da:d3:15:88:f2:9f:d5:b3:19:01:ee:f1:
        d5:d7:1c:79:dd:6f:ba:9d:71:2a:1b:c4:34:09:7d:b8:2e:74:
        39:83:f4:79:5f:2a:c3:c3:cf:ae:cd:1c:ba:72:2e:e6:15:12:
        4b:5a:b0:40:4d:bd:8f:af:d9:e5:10:32:0b:b7:eb:2f:b7:8a:
        22:65:61:e7:ff:70:a0:0d:35:c3:43:96:d7:0d:16:e6:cc:8a:
        a3:18:7d:fb:e9:7c:e7:f5:13:1c:9d:ad:27:76:d6:d6:fe:fa:
        dd:69:a2:ff:98:1e:4d:10:3b:ac:0d:a4:9c:98:c0:a8:ac:23:
        28:9e:73:aa:f6:3e:90:a7:c7:60:a2:19:2a:56:09:56:aa:dd:
        fd:98:f8:cb:0e:51:a2:e1:ff:e6:55:63:ef:ae:64:32:b4:c1:
        32:de:23:eb:c7:d6:5a:86:6b:38:9d:22:15:b5:98:29:b7:e5:
        cd:19:45:71:c2:e9:a9:a7:93:b0:01:08:b6:e9:4c:d4:c7:c2:
        43:e3:33:34:35:e7:fa:00:70:7e:78:5c:c4:27:3d:bc:92:25:
        f1:c7:ed:78:cc:4e:2e:59:67:8b:4f:1b:23:ae:c4:2f:28:5c:
        56:47:11:2f:d7:a6:48:88:f4:26:0e:00:28:a7:4b:12:20:de:
        48:2f:c6:37:ab:0c:a0:bf:5b:e0:44:bb:8c:6d:fb:c8:6b:a3:
        ea:1c:e4:b4:6c:55:ea:c6:bb:22:cd:60:c9:4c:69:b6:19:21:
        a9:4b:fd:55:d1:b8:48:b5:3b:a0:ab:0b:6d:cf:1d:ab:57:b3:
        5b:63:59:b9:7f:26:20:93:a4:f2:67:d0:45:52:dc:d6:de:64:
        dc:f2:1a:f1:b7:82:d2:8d:58:81:a1:eb:23:96:59:7e:1d:f3:
        79:e4:c3:02:b5:de:2c:14:80:06:a8:99:4e:3e:70:ba:fe:9b:
        24:14:c0:24:23:19:f0:11:20:dc:41:46:18:ce:f5:38:83:02:
        90:44:7b:79:36:8b:8f:ab:cf:d6:0d:89:57:fb:8b:a9:de:3e:
        85:84:a7:2c:32:77:fc:5f:38:a7:03:b5:e9:45:f8:a4:82:09:
        15:fe:b6:ed:30:fd:78:6f:f6:5d:96:0b:4b:6e:d8:89:09:08:
        67:2c:69:85:9e:a5:9c:37:44:3b:5d:67:af:64:3e:ff:ca:7a:
        c4:24:57:4e:24:42:f6:20:59:3e:08:5a:78:d4:7a:bc:71:e6:
        2a:96:8b:53:c3:9f:ca:98
-----BEGIN CERTIFICATE-----
MIIF1DCCA7ygAwIBAgIBEDANBgkqhkiG9w0BAQsFADBlMQswCQYDVQQGEwJJVDEQ
MA4GA1UECAwHVHVzY2FueTENMAsGA1UEBwwEUGlzYTEWMBQGA1UECgwNR2FjaGFB
bmRHYW1lczENMAsGA1UECwwERGJDQTEOMAwGA1UEAwwFRGIgQ0EwHhcNMjQxMjA1
MTkxMDU5WhcNMjcxMjA1MTkxMDU5WjCBgzELMAkGA1UEBhMCSVQxEDAOBgNVBAgM
B1R1c2NhbnkxDTALBgNVBAcMBFBpc2ExGjAYBgNVBAoMEWludmVudG9yeUFuZEdh
bWVzMRAwDgYDVQQLDAdEZXZlbG9wMSUwIwYDVQQDDBxzZXJ2aWNlX2ludmVudG9y
eV9kYl9wcmltYXJ5MIICIjANBgkqhkiG9w0BAQEFAAOCAg8AMIICCgKCAgEAspgr
A0RciCuQjsPixEXvGGaGabJFwVxBfrISbqivJ2Dx82Hu30JkBa2YwnjfwhQM7dx6
wPGMwlSKs3EhoUofL+dVqe1AZAcKHi6sFa3+zpGEXvBfOmaASr2m7jUiHFvCYS6X
WTGF/kIPR5h3K2oHywyYPByveX8QpVxwJ9OO42EJAEZhwo1tSZUpjB/ie0+JnamB
N4BXNpQZCEnAV868+3WHatVPyuZ4Yxy5KaMYtJxDEolceJCKMq+bwtYilHcQdFan
5SkBpq2kFlbwwiPjCVNJBbwLSkA4jjRlBIfYyQ/+IV0bJ3E6deuD3YJzO1IYZ/Az
2WbbxkLT1M4YIJ1QrinBQlZQL0V6ishdx8aG28OkvPl3/u82mT7g7OT3NkDSVxRU
b3z/DuXJV79QViVVy3ylvtzYv2akAfLTWvuNKUDmI95TLr05xrZq8OIQOkEAHV26
bjdkagl2YXo+KdQdlXzEAYCJQvnwv6iGvd5Cm/oAgl46h8z47rIe8ruBoCszgEl6
0TYm6EO+tq/Ljx3iJQhBvKcF2pW2Ho+pYZ0HfUR/LFB+vf2fXJkIPxezai1HEPle
sL+W5hMMSkQ5AajeocycOKOmMO4z1rwo5teyQQiAQyHE7Xokf2jC8ooFOzYtKA8k
0LEQPMVZXBmVVczmMX3tsa7+hT8DLmuTzM5FBAECAwEAAaNwMG4wCQYDVR0TBAIw
ADALBgNVHQ8EBAMCBaAwFAYDVR0RBA0wC4IJbG9jYWxob3N0MB0GA1UdDgQWBBSv
dTesxi1ks9NheVdGeruZh/plLTAfBgNVHSMEGDAWgBQ/hxkKLQMLvSrxBJBkXjF8
Hl2TgDANBgkqhkiG9w0BAQsFAAOCAgEACDupfBUkN7BjUkK6VV0KiQ+iWfAuPhPz
vvCSD+fvjIYR4glUiBdDthaa2tMViPKf1bMZAe7x1dcced1vup1xKhvENAl9uC50
OYP0eV8qw8PPrs0cunIu5hUSS1qwQE29j6/Z5RAyC7frL7eKImVh5/9woA01w0OW
1w0W5syKoxh9++l85/UTHJ2tJ3bW1v763Wmi/5geTRA7rA2knJjAqKwjKJ5zqvY+
kKfHYKIZKlYJVqrd/Zj4yw5RouH/5lVj765kMrTBMt4j68fWWoZrOJ0iFbWYKbfl
zRlFccLpqaeTsAEItulM1MfCQ+MzNDXn+gBwfnhcxCc9vJIl8cfteMxOLllni08b
I67ELyhcVkcRL9emSIj0Jg4AKKdLEiDeSC/GN6sMoL9b4ES7jG37yGuj6hzktGxV
6sa7Is1gyUxpthkhqUv9VdG4SLU7oKsLbc8dq1ezW2NZuX8mIJOk8mfQRVLc1t5k
3PIa8beC0o1YgaHrI5ZZfh3zeeTDArXeLBSABqiZTj5wuv6bJBTAJCMZ8BEg3EFG
GM71OIMCkER7eTaLj6vP1g2JV/uLqd4+hYSnLDJ3/F84pwO16UX4pIIJFf627TD9
eG/2XZYLS27YiQkIZyxphZ6lnDdEO11nr2Q+/8p6xCRXTiRC9iBZPghaeNR6vHHm
KpaLU8Ofypg=
-----END CERTIFICATE-----
