Certificate:
    Data:
        Version: 3 (0x2)
        Serial Number: 18 (0x12)
        Signature Algorithm: sha256WithRSAEncryption
        Issuer: C=IT, ST=Tuscany, L=Pisa, O=GachaAndGames, OU=DbCA, CN=Db CA
        Validity
            Not Before: Dec  5 19:11:57 2024 GMT
            Not After : Dec  5 19:11:57 2027 GMT
        Subject: C=IT, ST=Tuscany, L=Pisa, O=inventoryAndGames, OU=Develop, CN=service_inventory_db_replica
        Subject Public Key Info:
            Public Key Algorithm: rsaEncryption
                Public-Key: (4096 bit)
                Modulus:
                    00:a9:1b:05:5c:ab:c3:1f:83:58:ba:31:16:3a:b1:
                    3d:31:42:37:a1:ef:ba:22:aa:a5:74:de:1a:c2:d1:
                    12:31:f0:4d:61:0b:5b:b4:a9:74:3e:90:43:9b:d8:
                    6b:6b:35:c3:f8:a4:09:66:b5:8b:ff:59:46:60:9f:
                    5d:1e:50:fb:4e:08:64:31:76:c3:b2:3f:e5:38:88:
                    0d:69:ae:3f:6d:0c:3e:a5:a0:37:7a:18:b6:63:3d:
                    be:b0:b9:6c:d7:70:d1:57:eb:01:44:11:81:69:d8:
                    cb:e3:a6:cb:fe:0d:45:64:79:c4:31:ec:8b:11:88:
                    58:4a:a7:5a:d6:89:d3:7d:3c:49:a1:c2:8f:30:8b:
                    7c:62:02:e1:57:76:cd:64:79:f2:35:51:48:2b:bf:
                    e5:ce:13:42:ae:50:c1:1e:66:da:a9:d7:94:7b:39:
                    2c:f5:bd:a1:b7:76:0d:4a:4f:d4:44:88:83:f1:da:
                    a2:46:20:cc:8e:bb:fb:b0:f2:f0:46:8d:6f:bf:1e:
                    e0:a9:f3:d7:eb:55:22:7f:44:bb:5f:cf:0f:64:1c:
                    e9:96:a2:8a:af:39:02:98:5f:a6:57:97:68:05:c4:
                    3f:65:f3:6a:0b:11:24:43:4e:eb:95:28:c3:40:75:
                    e6:c2:48:e9:1d:0b:f1:6f:3d:ab:b3:03:93:95:10:
                    97:69:69:9c:b1:30:f5:3b:30:79:65:ef:b6:ad:00:
                    dd:4f:92:7f:0b:f9:87:2c:8c:b8:fa:08:01:21:ad:
                    fb:f8:55:58:c6:cf:96:b1:9e:66:b8:5f:25:a0:f2:
                    1a:fc:53:05:8d:60:74:6e:c1:a2:80:f4:81:fa:85:
                    8e:91:4e:13:41:90:95:d9:8d:6b:35:74:d4:81:89:
                    43:e6:18:be:4b:18:f5:57:c3:33:ab:76:2c:4a:b6:
                    8a:f9:b9:24:99:19:53:95:64:06:7b:da:41:1d:c7:
                    62:97:59:58:24:b0:74:c5:f3:ab:43:b8:ef:c8:52:
                    99:9d:68:85:d2:bd:2a:0f:f6:57:64:27:e7:11:e5:
                    4d:a8:e9:c2:7d:73:b8:23:07:b8:ef:50:e8:c1:73:
                    ce:d5:0f:99:d8:51:2a:d9:97:b3:28:8f:da:04:e4:
                    b0:e4:e0:18:81:28:cd:2d:38:3f:14:de:d9:28:c1:
                    77:db:59:07:8f:6b:48:67:9f:e5:4e:75:32:ab:f9:
                    10:41:f1:50:9b:e3:70:9e:74:18:f9:b9:ff:3a:25:
                    d4:e3:4e:7b:60:55:91:84:8a:51:a0:03:6c:5f:36:
                    7e:9c:ec:8f:c4:92:7c:11:b2:06:54:d4:10:8a:81:
                    3f:7a:f1:b9:a8:78:a6:f4:b8:b7:34:3f:63:92:e6:
                    ac:84:f9
                Exponent: 65537 (0x10001)
        X509v3 extensions:
            X509v3 Basic Constraints: 
                CA:FALSE
            X509v3 Key Usage: 
                Digital Signature, Key Encipherment
            X509v3 Subject Alternative Name: 
                DNS:localhost
            X509v3 Subject Key Identifier: 
                C0:3C:B4:B3:15:F9:06:28:D3:CA:7B:CA:92:53:7A:E1:41:6C:79:0C
            X509v3 Authority Key Identifier: 
                3F:87:19:0A:2D:03:0B:BD:2A:F1:04:90:64:5E:31:7C:1E:5D:93:80
    Signature Algorithm: sha256WithRSAEncryption
    Signature Value:
        0e:2d:6a:6b:65:c3:15:ac:9f:a1:bb:9a:33:fb:8c:a8:5d:0b:
        b4:d3:6d:ac:59:14:33:b3:a2:8b:0d:f4:86:92:18:fb:95:ed:
        0a:b3:31:f0:53:aa:a6:c2:47:d5:a8:7e:2c:a6:d5:f1:aa:90:
        10:a9:a6:0e:60:37:23:e7:bb:16:1b:94:89:ee:90:6d:eb:12:
        72:c9:86:1d:93:fa:68:fb:2f:2f:80:73:9a:42:ae:ab:d1:fc:
        88:a9:20:d6:02:5d:8a:af:f6:1e:a2:2f:da:26:ed:e1:2d:59:
        07:7e:0e:d9:3c:da:f0:59:c4:bf:71:9c:cf:35:df:07:78:ab:
        76:40:fa:29:7c:f7:c4:58:8f:d5:9f:25:b1:dd:24:32:ca:f6:
        38:84:9a:61:9b:80:17:4a:3b:e3:77:36:76:c7:bd:e8:83:31:
        54:72:ee:81:e0:6b:95:64:c4:cd:97:8e:55:3f:d4:c3:e8:69:
        84:ec:97:88:7c:00:ad:f4:8c:67:f0:c3:81:a4:bf:4f:26:28:
        9f:b8:21:80:34:ce:42:58:6d:b0:0b:2a:d6:74:a6:65:d8:d0:
        64:ed:e6:48:a8:51:c6:9b:e8:b8:24:df:e7:61:50:fa:37:46:
        57:df:8e:d3:b2:38:62:b0:44:33:0e:73:db:88:33:0c:f3:2b:
        bb:9a:5e:02:8b:f6:13:18:af:13:c5:fc:36:c2:dc:65:3c:36:
        96:f8:50:3a:e4:fb:73:1c:46:d6:14:2c:7a:9f:e1:9b:cc:0d:
        70:5c:3e:a3:9e:1f:96:28:53:48:0e:7f:af:ea:85:2d:ee:66:
        97:d9:6c:94:ab:77:7e:66:df:62:eb:a4:eb:49:6b:ab:eb:6d:
        61:73:ad:43:0f:1b:08:39:1c:10:1f:71:77:09:d7:e3:cb:4d:
        5e:eb:a1:67:ea:58:6a:a7:9e:87:d5:e3:03:3e:68:68:c4:6f:
        e5:d0:6f:b7:3b:fe:8a:58:eb:58:b5:f8:92:b5:2c:3e:db:7f:
        4f:53:0d:90:0a:8b:3f:67:2e:a4:7a:91:eb:16:98:18:e7:a4:
        ad:2b:32:96:bb:10:01:63:58:97:7d:ec:4c:6f:db:77:17:08:
        b0:2b:7c:1d:fc:dd:eb:e2:68:b6:2f:cc:20:b7:e8:77:5a:30:
        78:d5:d5:e7:54:b4:39:2e:18:dc:4d:de:49:06:4a:07:a2:ef:
        2e:19:38:34:d2:12:03:53:e9:cf:0b:9f:83:2f:c3:fa:a1:59:
        e3:dc:f9:df:2b:5c:60:23:70:14:89:21:14:85:73:45:b8:62:
        d7:49:9c:fd:e1:11:6b:d5:54:b2:51:1c:7a:4b:32:6c:46:96:
        a7:00:07:36:af:95:c9:fa
-----BEGIN CERTIFICATE-----
MIIF1DCCA7ygAwIBAgIBEjANBgkqhkiG9w0BAQsFADBlMQswCQYDVQQGEwJJVDEQ
MA4GA1UECAwHVHVzY2FueTENMAsGA1UEBwwEUGlzYTEWMBQGA1UECgwNR2FjaGFB
bmRHYW1lczENMAsGA1UECwwERGJDQTEOMAwGA1UEAwwFRGIgQ0EwHhcNMjQxMjA1
MTkxMTU3WhcNMjcxMjA1MTkxMTU3WjCBgzELMAkGA1UEBhMCSVQxEDAOBgNVBAgM
B1R1c2NhbnkxDTALBgNVBAcMBFBpc2ExGjAYBgNVBAoMEWludmVudG9yeUFuZEdh
bWVzMRAwDgYDVQQLDAdEZXZlbG9wMSUwIwYDVQQDDBxzZXJ2aWNlX2ludmVudG9y
eV9kYl9yZXBsaWNhMIICIjANBgkqhkiG9w0BAQEFAAOCAg8AMIICCgKCAgEAqRsF
XKvDH4NYujEWOrE9MUI3oe+6IqqldN4awtESMfBNYQtbtKl0PpBDm9hrazXD+KQJ
ZrWL/1lGYJ9dHlD7TghkMXbDsj/lOIgNaa4/bQw+paA3ehi2Yz2+sLls13DRV+sB
RBGBadjL46bL/g1FZHnEMeyLEYhYSqda1onTfTxJocKPMIt8YgLhV3bNZHnyNVFI
K7/lzhNCrlDBHmbaqdeUezks9b2ht3YNSk/URIiD8dqiRiDMjrv7sPLwRo1vvx7g
qfPX61Uif0S7X88PZBzplqKKrzkCmF+mV5doBcQ/ZfNqCxEkQ07rlSjDQHXmwkjp
HQvxbz2rswOTlRCXaWmcsTD1OzB5Ze+2rQDdT5J/C/mHLIy4+ggBIa37+FVYxs+W
sZ5muF8loPIa/FMFjWB0bsGigPSB+oWOkU4TQZCV2Y1rNXTUgYlD5hi+Sxj1V8Mz
q3YsSraK+bkkmRlTlWQGe9pBHcdil1lYJLB0xfOrQ7jvyFKZnWiF0r0qD/ZXZCfn
EeVNqOnCfXO4Iwe471DowXPO1Q+Z2FEq2ZezKI/aBOSw5OAYgSjNLTg/FN7ZKMF3
21kHj2tIZ5/lTnUyq/kQQfFQm+NwnnQY+bn/OiXU4057YFWRhIpRoANsXzZ+nOyP
xJJ8EbIGVNQQioE/evG5qHim9Li3ND9jkuashPkCAwEAAaNwMG4wCQYDVR0TBAIw
ADALBgNVHQ8EBAMCBaAwFAYDVR0RBA0wC4IJbG9jYWxob3N0MB0GA1UdDgQWBBTA
PLSzFfkGKNPKe8qSU3rhQWx5DDAfBgNVHSMEGDAWgBQ/hxkKLQMLvSrxBJBkXjF8
Hl2TgDANBgkqhkiG9w0BAQsFAAOCAgEADi1qa2XDFayfobuaM/uMqF0LtNNtrFkU
M7Oiiw30hpIY+5XtCrMx8FOqpsJH1ah+LKbV8aqQEKmmDmA3I+e7FhuUie6QbesS
csmGHZP6aPsvL4BzmkKuq9H8iKkg1gJdiq/2HqIv2ibt4S1ZB34O2Tza8FnEv3Gc
zzXfB3irdkD6KXz3xFiP1Z8lsd0kMsr2OISaYZuAF0o743c2dse96IMxVHLugeBr
lWTEzZeOVT/Uw+hphOyXiHwArfSMZ/DDgaS/TyYon7ghgDTOQlhtsAsq1nSmZdjQ
ZO3mSKhRxpvouCTf52FQ+jdGV9+O07I4YrBEMw5z24gzDPMru5peAov2ExivE8X8
NsLcZTw2lvhQOuT7cxxG1hQsep/hm8wNcFw+o54flihTSA5/r+qFLe5ml9lslKt3
fmbfYuuk60lrq+ttYXOtQw8bCDkcEB9xdwnX48tNXuuhZ+pYaqeeh9XjAz5oaMRv
5dBvtzv+iljrWLX4krUsPtt/T1MNkAqLP2cupHqR6xaYGOekrSsylrsQAWNYl33s
TG/bdxcIsCt8Hfzd6+Joti/MILfod1oweNXV51S0OS4Y3E3eSQZKB6LvLhk4NNIS
A1Ppzwufgy/D+qFZ49z53ytcYCNwFIkhFIVzRbhi10mc/eERa9VUslEceksybEaW
pwAHNq+Vyfo=
-----END CERTIFICATE-----
