Certificate:
    Data:
        Version: 3 (0x2)
        Serial Number: 19 (0x13)
        Signature Algorithm: sha256WithRSAEncryption
        Issuer: C=IT, ST=Tuscany, L=Pisa, O=GachaAndGames, OU=DbCA, CN=Db CA
        Validity
            Not Before: Dec  5 19:34:07 2024 GMT
            Not After : Dec  5 19:34:07 2027 GMT
        Subject: C=IT, ST=Tuscany, L=Pisa, O=profileAndGames, OU=Develop, CN=service_profile_db_primary
        Subject Public Key Info:
            Public Key Algorithm: rsaEncryption
                Public-Key: (4096 bit)
                Modulus:
                    00:c1:04:36:6e:8e:e8:4d:33:9a:00:9a:53:cf:30:
                    81:75:a6:7a:b5:3c:ce:a4:e4:11:6c:d3:5a:06:f5:
                    cf:de:64:87:2f:83:72:6a:5b:5f:34:29:56:78:49:
                    ee:1c:88:8b:78:02:a8:06:f6:ef:10:7a:c5:19:91:
                    45:63:3f:bb:d1:18:34:46:24:ce:0a:f8:cb:4d:47:
                    c1:79:ce:89:c3:42:78:79:a0:ae:77:45:fe:68:ab:
                    e2:dc:57:5b:33:06:74:ef:51:a0:9b:de:2e:8a:7e:
                    63:07:e3:bc:48:c1:c0:3c:35:52:b6:8c:95:a6:d6:
                    1a:00:d6:ac:61:c4:f6:98:78:c8:0c:15:c3:21:09:
                    e4:7d:ae:88:14:61:aa:63:a5:c1:6e:54:9e:a7:53:
                    e9:47:33:98:98:30:ac:02:86:21:cb:2e:90:0e:9a:
                    81:ce:68:d8:e6:4b:ce:a8:49:7a:87:01:0b:bb:08:
                    25:e9:95:ff:43:d6:80:78:aa:f8:b0:d8:41:74:06:
                    fd:a5:a8:85:05:71:64:e2:52:4a:fd:24:f5:1a:8b:
                    f1:97:52:bf:f9:e9:21:ca:d6:9a:20:de:33:03:bf:
                    e1:af:06:6e:d8:1b:dc:a7:5d:f2:4f:ca:52:22:bf:
                    bc:b5:b6:1e:06:6e:a3:4f:f6:91:1c:e6:c7:55:b8:
                    f2:ac:bf:f1:cb:60:b0:c1:ef:63:e2:48:7f:9f:8d:
                    5e:de:27:d8:d8:28:58:7d:28:50:cc:49:f9:1d:92:
                    01:f2:87:fa:8c:03:55:f3:07:8b:79:ff:ef:6d:59:
                    bc:6e:51:4c:c0:8e:aa:39:d8:32:c3:d3:c6:e9:38:
                    1e:47:6d:15:af:f7:a7:35:2d:bb:ff:1b:31:83:84:
                    80:b0:d8:b5:e1:66:e4:6c:c4:4d:6d:c1:89:35:98:
                    7e:80:11:a9:49:36:f1:d6:c8:d3:06:87:8a:24:b3:
                    97:55:51:3b:98:76:10:d2:21:65:f4:c3:87:21:fe:
                    af:a2:2a:87:f6:b3:14:70:34:f9:1b:c7:dd:e6:76:
                    85:1c:99:83:c6:19:40:de:f3:f1:0e:11:b2:7c:95:
                    82:65:70:57:f3:83:db:b2:08:b4:a7:db:2a:d5:05:
                    66:c0:fe:65:a6:ce:05:98:3d:9e:9e:21:0b:dd:3c:
                    e2:bb:2f:ff:ef:cb:40:04:ee:59:47:ca:ed:ed:13:
                    9b:62:4b:f4:a2:94:40:72:7f:b9:4d:8b:fa:07:58:
                    74:29:5d:71:8a:87:bb:c3:94:78:4d:51:a2:61:41:
                    1a:22:f3:d6:89:a2:86:1a:44:06:6d:ee:aa:df:54:
                    e7:4b:8d:6a:f1:18:6f:c4:cb:c0:11:66:0b:39:00:
                    89:c4:cd
                Exponent: 65537 (0x10001)
        X509v3 extensions:
            X509v3 Basic Constraints: 
                CA:FALSE
            X509v3 Key Usage: 
                Digital Signature, Key Encipherment
            X509v3 Subject Alternative Name: 
                DNS:localhost
            X509v3 Subject Key Identifier: 
                A2:20:F7:E6:76:41:02:13:1E:3A:56:46:87:F8:E6:47:A4:A8:6D:9C
            X509v3 Authority Key Identifier: 
                3F:87:19:0A:2D:03:0B:BD:2A:F1:04:90:64:5E:31:7C:1E:5D:93:80
    Signature Algorithm: sha256WithRSAEncryption
    Signature Value:
        38:e5:c4:0a:3a:f3:b3:33:57:11:ae:37:06:0f:8c:e6:eb:81:
        d2:0e:1e:cf:6f:88:59:98:04:4e:e5:20:5b:3c:82:b9:6e:1d:
        10:89:8f:a8:41:2c:8f:84:75:8d:ca:78:cb:11:ec:67:72:0c:
        ea:92:3b:44:b7:77:99:4b:4a:39:1d:e2:59:c2:85:ab:49:41:
        f5:41:fc:e2:6a:1f:69:92:e0:07:a2:c7:ec:7d:77:df:a3:57:
        6e:d6:d5:be:c0:1e:3e:1c:10:f3:6e:b5:a8:df:0a:e6:72:5e:
        7a:0a:55:f3:50:c9:48:f7:66:aa:8d:55:ff:f7:d8:9d:82:0e:
        a4:1c:64:e2:6b:ab:70:ac:53:5b:89:36:00:ff:c5:44:68:d7:
        15:c3:5b:20:16:4d:74:b3:00:c9:41:f8:65:e0:71:43:e5:9f:
        18:39:47:50:48:23:2d:98:c2:74:0f:00:f3:d4:cd:d4:2a:f6:
        4d:14:ae:69:c8:7c:a6:37:73:f2:d7:f9:71:c5:47:f2:fd:9e:
        30:a3:50:47:a2:4a:82:24:7f:0a:34:db:ec:09:70:c1:0e:5e:
        b8:80:e5:39:ab:10:f9:3e:0e:f7:ff:21:d4:ec:7e:b7:da:a4:
        e0:33:fc:83:a7:fc:97:9f:d5:72:65:d2:4d:c6:4a:c3:4d:cc:
        da:f0:d0:88:cb:85:09:67:8a:a4:b5:aa:db:e0:6a:cd:dd:4f:
        0b:09:7c:94:d2:5e:0d:c3:1b:64:96:5f:64:30:8f:ea:8f:97:
        f1:19:cc:ec:ff:a4:0e:16:5f:b1:af:e7:6e:b5:c2:20:54:ae:
        49:f4:39:43:1b:33:84:b7:dd:34:31:99:f1:fb:ae:21:bd:8d:
        db:02:2e:68:69:b7:98:a5:ba:3d:2e:f8:02:f2:4f:15:c9:9a:
        25:c3:e6:4b:72:29:33:63:9a:3d:0b:a3:c9:29:12:9b:85:b3:
        1a:af:4a:63:26:06:47:d7:e7:79:de:8d:86:0d:dd:30:83:95:
        77:6d:d0:cd:43:a3:b1:e8:9e:99:d6:f4:07:78:d8:d3:21:00:
        37:4d:6c:af:5d:f8:9d:91:4c:32:19:f0:a9:b2:40:43:95:ad:
        91:1a:4a:88:de:37:6d:c0:f0:a9:ff:5f:46:49:ae:58:74:74:
        7d:3e:f8:05:ba:60:5a:24:4a:3d:41:70:df:6e:71:78:48:a2:
        83:6a:9b:05:6f:cb:82:ac:ae:79:33:0f:90:64:4b:48:6a:56:
        2e:b6:94:7a:e0:87:7c:5a:a6:de:03:5b:30:3b:68:00:63:3c:
        fb:de:b0:78:eb:59:fc:b6:54:68:33:dd:6d:f6:be:a8:88:b6:
        84:21:0f:6d:9f:65:4a:45
-----BEGIN CERTIFICATE-----
MIIFzzCCA7egAwIBAgIBEzANBgkqhkiG9w0BAQsFADBlMQswCQYDVQQGEwJJVDEQ
MA4GA1UECAwHVHVzY2FueTENMAsGA1UEBwwEUGlzYTEWMBQGA1UECgwNR2FjaGFB
bmRHYW1lczENMAsGA1UECwwERGJDQTEOMAwGA1UEAwwFRGIgQ0EwHhcNMjQxMjA1
MTkzNDA3WhcNMjcxMjA1MTkzNDA3WjB/MQswCQYDVQQGEwJJVDEQMA4GA1UECAwH
VHVzY2FueTENMAsGA1UEBwwEUGlzYTEYMBYGA1UECgwPcHJvZmlsZUFuZEdhbWVz
MRAwDgYDVQQLDAdEZXZlbG9wMSMwIQYDVQQDDBpzZXJ2aWNlX3Byb2ZpbGVfZGJf
cHJpbWFyeTCCAiIwDQYJKoZIhvcNAQEBBQADggIPADCCAgoCggIBAMEENm6O6E0z
mgCaU88wgXWmerU8zqTkEWzTWgb1z95khy+DcmpbXzQpVnhJ7hyIi3gCqAb27xB6
xRmRRWM/u9EYNEYkzgr4y01HwXnOicNCeHmgrndF/mir4txXWzMGdO9RoJveLop+
YwfjvEjBwDw1UraMlabWGgDWrGHE9ph4yAwVwyEJ5H2uiBRhqmOlwW5UnqdT6Ucz
mJgwrAKGIcsukA6agc5o2OZLzqhJeocBC7sIJemV/0PWgHiq+LDYQXQG/aWohQVx
ZOJSSv0k9RqL8ZdSv/npIcrWmiDeMwO/4a8Gbtgb3Kdd8k/KUiK/vLW2HgZuo0/2
kRzmx1W48qy/8ctgsMHvY+JIf5+NXt4n2NgoWH0oUMxJ+R2SAfKH+owDVfMHi3n/
721ZvG5RTMCOqjnYMsPTxuk4HkdtFa/3pzUtu/8bMYOEgLDYteFm5GzETW3BiTWY
foARqUk28dbI0waHiiSzl1VRO5h2ENIhZfTDhyH+r6Iqh/azFHA0+RvH3eZ2hRyZ
g8YZQN7z8Q4RsnyVgmVwV/OD27IItKfbKtUFZsD+ZabOBZg9np4hC9084rsv/+/L
QATuWUfK7e0Tm2JL9KKUQHJ/uU2L+gdYdCldcYqHu8OUeE1RomFBGiLz1omihhpE
Bm3uqt9U50uNavEYb8TLwBFmCzkAicTNAgMBAAGjcDBuMAkGA1UdEwQCMAAwCwYD
VR0PBAQDAgWgMBQGA1UdEQQNMAuCCWxvY2FsaG9zdDAdBgNVHQ4EFgQUoiD35nZB
AhMeOlZGh/jmR6SobZwwHwYDVR0jBBgwFoAUP4cZCi0DC70q8QSQZF4xfB5dk4Aw
DQYJKoZIhvcNAQELBQADggIBADjlxAo687MzVxGuNwYPjObrgdIOHs9viFmYBE7l
IFs8grluHRCJj6hBLI+EdY3KeMsR7GdyDOqSO0S3d5lLSjkd4lnChatJQfVB/OJq
H2mS4Aeix+x9d9+jV27W1b7AHj4cEPNutajfCuZyXnoKVfNQyUj3ZqqNVf/32J2C
DqQcZOJrq3CsU1uJNgD/xURo1xXDWyAWTXSzAMlB+GXgcUPlnxg5R1BIIy2YwnQP
APPUzdQq9k0UrmnIfKY3c/LX+XHFR/L9njCjUEeiSoIkfwo02+wJcMEOXriA5Tmr
EPk+Dvf/IdTsfrfapOAz/IOn/Jef1XJl0k3GSsNNzNrw0IjLhQlniqS1qtvgas3d
TwsJfJTSXg3DG2SWX2Qwj+qPl/EZzOz/pA4WX7Gv5261wiBUrkn0OUMbM4S33TQx
mfH7riG9jdsCLmhpt5iluj0u+ALyTxXJmiXD5ktyKTNjmj0Lo8kpEpuFsxqvSmMm
BkfX53nejYYN3TCDlXdt0M1Do7HonpnW9Ad42NMhADdNbK9d+J2RTDIZ8KmyQEOV
rZEaSojeN23A8Kn/X0ZJrlh0dH0++AW6YFokSj1BcN9ucXhIooNqmwVvy4Ksrnkz
D5BkS0hqVi62lHrgh3xapt4DWzA7aABjPPvesHjrWfy2VGgz3W32vqiItoQhD22f
ZUpF
-----END CERTIFICATE-----
