Certificate:
    Data:
        Version: 3 (0x2)
        Serial Number: 20 (0x14)
        Signature Algorithm: sha256WithRSAEncryption
        Issuer: C=IT, ST=Tuscany, L=Pisa, O=GachaAndGames, OU=DbCA, CN=Db CA
        Validity
            Not Before: Dec  5 19:34:37 2024 GMT
            Not After : Dec  5 19:34:37 2027 GMT
        Subject: C=IT, ST=Tuscany, L=Pisa, O=profileAndGames, OU=Develop, CN=service_profile_db_proxy
        Subject Public Key Info:
            Public Key Algorithm: rsaEncryption
                Public-Key: (4096 bit)
                Modulus:
                    00:ef:55:1a:c1:6c:e1:e4:71:92:75:94:39:50:5b:
                    ef:cb:d6:07:cc:26:5b:90:2f:8e:e8:9f:14:bd:54:
                    68:64:17:e5:4b:5c:b4:97:e3:39:98:6a:25:30:31:
                    19:52:7d:53:55:b2:da:fa:4b:00:5b:8e:3f:7f:32:
                    71:f3:a2:8f:6c:09:06:87:eb:41:d2:3b:e2:02:45:
                    c7:1d:76:9e:82:02:e6:df:ba:8f:b5:ce:3b:55:95:
                    58:b3:a9:c4:b2:b0:cf:b9:9b:88:6a:02:ef:86:64:
                    2c:1f:cf:1e:14:38:0f:1c:52:64:ba:18:5b:cb:4b:
                    44:53:db:a0:b0:83:57:5e:4a:2e:3b:52:17:9e:38:
                    11:93:e1:4d:c3:14:fd:c9:3d:e3:c4:ee:23:c5:a1:
                    40:17:a4:0c:35:5c:65:5e:8a:a6:ff:90:46:91:61:
                    b3:ab:3e:88:be:c8:de:5c:00:ee:1a:9d:21:b7:ab:
                    30:c4:d0:5e:8b:0d:88:00:60:c0:80:a1:84:a2:20:
                    b5:6d:81:cf:ab:90:cf:97:d8:d5:bf:2e:a5:a2:f8:
                    a3:3f:a2:cb:f9:df:3b:25:d6:9a:71:a5:56:89:66:
                    18:18:e1:07:81:5f:14:ac:f6:60:6c:7f:a7:a7:b3:
                    ea:d3:29:a5:18:a2:2f:ac:ae:84:d0:40:1a:82:a7:
                    3b:23:4e:7c:3e:7d:a7:01:e0:94:df:6a:d0:34:7b:
                    13:d3:2d:6c:b7:ae:87:2a:eb:c8:71:0b:45:0e:f6:
                    3a:15:8e:9a:c9:c5:21:99:5e:07:05:9f:9f:da:50:
                    7e:b6:3f:fa:81:71:4c:5a:dc:48:65:f1:0b:1a:76:
                    b1:f9:99:c7:e4:87:bf:53:d7:b4:ee:25:d9:8c:c6:
                    d8:16:5a:3b:60:0c:1e:81:b6:16:16:50:79:27:93:
                    db:be:07:f8:0c:6f:fc:a7:43:35:ee:47:b8:3b:90:
                    67:07:31:ff:8a:b2:86:55:1c:41:eb:b6:91:b1:82:
                    7a:e2:e1:03:bf:a0:65:5d:43:d0:77:f1:71:e7:76:
                    64:6b:8f:dc:d5:36:0c:95:22:25:e5:c9:24:fa:c3:
                    98:f8:20:71:b2:d1:01:c7:ef:af:b4:87:f2:22:45:
                    88:e2:6b:01:53:4e:e1:81:34:f6:e5:a3:39:31:e1:
                    36:f0:c0:62:44:92:83:22:77:c1:36:f6:9f:11:85:
                    05:18:86:fc:83:3c:73:4c:e7:f1:13:7d:f4:ab:a1:
                    df:45:2f:7f:e8:29:59:cf:e4:dd:79:51:5b:97:23:
                    a7:fe:ba:89:22:8c:56:f3:62:b0:e3:08:53:84:ab:
                    6e:b3:2c:28:71:a2:0f:e0:5f:a9:99:54:1e:7f:38:
                    71:74:41
                Exponent: 65537 (0x10001)
        X509v3 extensions:
            X509v3 Basic Constraints: 
                CA:FALSE
            X509v3 Key Usage: 
                Digital Signature, Key Encipherment
            X509v3 Subject Alternative Name: 
                DNS:localhost
            X509v3 Subject Key Identifier: 
                10:64:41:E2:EC:EF:E0:CC:09:E9:07:5E:55:5D:D5:39:1A:1C:C4:44
            X509v3 Authority Key Identifier: 
                3F:87:19:0A:2D:03:0B:BD:2A:F1:04:90:64:5E:31:7C:1E:5D:93:80
    Signature Algorithm: sha256WithRSAEncryption
    Signature Value:
        04:63:c2:c8:a7:be:e7:f3:79:27:3b:e8:32:fc:e0:cb:c5:5f:
        8c:fc:37:79:ab:0e:2d:23:bc:f3:ea:4b:aa:9d:70:a0:c3:8a:
        7d:b7:94:e8:67:1a:27:a9:32:db:2c:30:01:b6:b2:a7:aa:9a:
        fc:f3:a6:86:2d:0d:82:b8:5f:20:b3:85:a2:b2:0a:a4:6b:e2:
        6f:f1:e2:a9:ad:47:2a:92:1c:a8:31:54:e2:5f:18:d1:59:2f:
        56:98:65:f6:d7:ff:13:9a:01:eb:bc:f6:8e:ea:3a:f8:c5:fb:
        25:2f:c4:1d:2e:1f:b4:44:88:c1:f3:93:0b:7f:83:fe:76:15:
        e8:64:59:a9:fb:38:51:5e:44:96:66:1e:3f:93:61:e1:a2:82:
        02:88:c4:6c:0d:ae:be:75:5d:19:1a:ba:00:44:bf:77:b5:60:
        9c:bc:b0:26:a7:5a:aa:48:bb:ca:10:32:90:50:fd:d8:dd:d3:
        1d:10:0b:2a:aa:06:13:9a:0a:74:c2:ff:4e:55:97:72:db:ed:
        8a:c8:fb:6e:d6:9f:f5:72:70:f0:76:0f:b7:da:77:ee:e3:52:
        05:b4:70:2f:75:1b:6c:6f:6c:0b:de:88:b8:5c:23:86:eb:c8:
        aa:42:43:96:a1:5c:a1:0b:54:9d:3b:e5:94:cd:45:79:45:9e:
        68:c0:e7:0a:6b:23:50:6f:be:27:93:53:77:ee:06:2a:71:3a:
        b7:f6:eb:d5:e1:cf:d5:ab:2e:20:19:82:85:64:76:63:ec:49:
        ba:78:c0:2d:de:c3:71:17:45:52:37:0d:c3:5d:b4:04:01:2c:
        05:c1:d0:1c:38:a4:96:5e:ae:b4:59:f1:bd:56:22:1e:de:b8:
        c7:a0:e7:2a:af:28:e6:0b:3c:68:0c:31:3d:81:ec:93:74:ef:
        22:f4:cb:de:09:72:87:58:71:ee:1a:ad:ca:81:f6:89:f4:63:
        2d:75:67:3d:72:63:16:d4:8a:56:7f:05:ef:24:c4:cf:5f:17:
        e0:06:08:12:e7:05:a3:4b:a8:7d:44:02:6b:d8:74:e7:5c:db:
        49:f0:a7:25:74:8f:d3:99:be:f5:d8:c5:80:d1:6e:0d:27:8f:
        b2:70:34:11:4b:a2:ca:b2:dc:ff:24:55:d2:ac:0f:d7:49:53:
        c9:75:7f:5e:95:3e:f6:8e:71:46:75:9b:77:58:03:97:87:b1:
        d9:cd:15:12:0d:4e:4e:c4:62:49:a2:d0:3c:22:82:bb:d6:a3:
        23:4e:ca:98:1c:00:40:e2:8e:29:bf:d5:6c:b7:1b:73:39:98:
        6a:7a:26:80:24:4f:06:e4:09:4f:f9:a4:37:05:09:11:aa:f2:
        24:9c:05:aa:6a:70:ea:86
-----BEGIN CERTIFICATE-----
MIIFzTCCA7WgAwIBAgIBFDANBgkqhkiG9w0BAQsFADBlMQswCQYDVQQGEwJJVDEQ
MA4GA1UECAwHVHVzY2FueTENMAsGA1UEBwwEUGlzYTEWMBQGA1UECgwNR2FjaGFB
bmRHYW1lczENMAsGA1UECwwERGJDQTEOMAwGA1UEAwwFRGIgQ0EwHhcNMjQxMjA1
MTkzNDM3WhcNMjcxMjA1MTkzNDM3WjB9MQswCQYDVQQGEwJJVDEQMA4GA1UECAwH
VHVzY2FueTENMAsGA1UEBwwEUGlzYTEYMBYGA1UECgwPcHJvZmlsZUFuZEdhbWVz
MRAwDgYDVQQLDAdEZXZlbG9wMSEwHwYDVQQDDBhzZXJ2aWNlX3Byb2ZpbGVfZGJf
cHJveHkwggIiMA0GCSqGSIb3DQEBAQUAA4ICDwAwggIKAoICAQDvVRrBbOHkcZJ1
lDlQW+/L1gfMJluQL47onxS9VGhkF+VLXLSX4zmYaiUwMRlSfVNVstr6SwBbjj9/
MnHzoo9sCQaH60HSO+ICRccddp6CAubfuo+1zjtVlVizqcSysM+5m4hqAu+GZCwf
zx4UOA8cUmS6GFvLS0RT26Cwg1deSi47UheeOBGT4U3DFP3JPePE7iPFoUAXpAw1
XGVeiqb/kEaRYbOrPoi+yN5cAO4anSG3qzDE0F6LDYgAYMCAoYSiILVtgc+rkM+X
2NW/LqWi+KM/osv53zsl1ppxpVaJZhgY4QeBXxSs9mBsf6ens+rTKaUYoi+sroTQ
QBqCpzsjTnw+facB4JTfatA0exPTLWy3rocq68hxC0UO9joVjprJxSGZXgcFn5/a
UH62P/qBcUxa3Ehl8QsadrH5mcfkh79T17TuJdmMxtgWWjtgDB6BthYWUHknk9u+
B/gMb/ynQzXuR7g7kGcHMf+KsoZVHEHrtpGxgnri4QO/oGVdQ9B38XHndmRrj9zV
NgyVIiXlyST6w5j4IHGy0QHH76+0h/IiRYjiawFTTuGBNPblozkx4TbwwGJEkoMi
d8E29p8RhQUYhvyDPHNM5/ETffSrod9FL3/oKVnP5N15UVuXI6f+uokijFbzYrDj
CFOEq26zLChxog/gX6mZVB5/OHF0QQIDAQABo3AwbjAJBgNVHRMEAjAAMAsGA1Ud
DwQEAwIFoDAUBgNVHREEDTALgglsb2NhbGhvc3QwHQYDVR0OBBYEFBBkQeLs7+DM
CekHXlVd1TkaHMREMB8GA1UdIwQYMBaAFD+HGQotAwu9KvEEkGReMXweXZOAMA0G
CSqGSIb3DQEBCwUAA4ICAQAEY8LIp77n83knO+gy/ODLxV+M/Dd5qw4tI7zz6kuq
nXCgw4p9t5ToZxonqTLbLDABtrKnqpr886aGLQ2CuF8gs4Wisgqka+Jv8eKprUcq
khyoMVTiXxjRWS9WmGX21/8TmgHrvPaO6jr4xfslL8QdLh+0RIjB85MLf4P+dhXo
ZFmp+zhRXkSWZh4/k2HhooICiMRsDa6+dV0ZGroARL93tWCcvLAmp1qqSLvKEDKQ
UP3Y3dMdEAsqqgYTmgp0wv9OVZdy2+2KyPtu1p/1cnDwdg+32nfu41IFtHAvdRts
b2wL3oi4XCOG68iqQkOWoVyhC1SdO+WUzUV5RZ5owOcKayNQb74nk1N37gYqcTq3
9uvV4c/Vqy4gGYKFZHZj7Em6eMAt3sNxF0VSNw3DXbQEASwFwdAcOKSWXq60WfG9
ViIe3rjHoOcqryjmCzxoDDE9geyTdO8i9MveCXKHWHHuGq3KgfaJ9GMtdWc9cmMW
1IpWfwXvJMTPXxfgBggS5wWjS6h9RAJr2HTnXNtJ8KcldI/Tmb712MWA0W4NJ4+y
cDQRS6LKstz/JFXSrA/XSVPJdX9elT72jnFGdZt3WAOXh7HZzRUSDU5OxGJJotA8
IoK71qMjTsqYHABA4o4pv9VstxtzOZhqeiaAJE8G5AlP+aQ3BQkRqvIknAWqanDq
hg==
-----END CERTIFICATE-----
