Certificate:
    Data:
        Version: 3 (0x2)
        Serial Number: 23 (0x17)
        Signature Algorithm: sha256WithRSAEncryption
        Issuer: C=IT, ST=Tuscany, L=Pisa, O=GachaAndGames, OU=DbCA, CN=Db CA
        Validity
            Not Before: Dec  5 19:37:11 2024 GMT
            Not After : Dec  5 19:37:11 2027 GMT
        Subject: C=IT, ST=Tuscany, L=Pisa, O=GachaAndGames, OU=Develop, CN=service_pvp_db_proxy
        Subject Public Key Info:
            Public Key Algorithm: rsaEncryption
                Public-Key: (4096 bit)
                Modulus:
                    00:bf:28:fe:8c:35:ab:5c:67:ec:f5:b2:ab:81:74:
                    83:9c:4b:65:28:7f:45:6c:3b:e0:7c:d9:2e:52:6c:
                    17:a8:6d:6e:7d:e2:dc:6f:1a:69:51:4b:12:f7:e6:
                    81:43:61:e7:dd:fd:2a:2e:46:01:27:2e:4a:b7:23:
                    55:ec:58:d2:76:b1:c9:3b:97:60:47:22:b0:83:11:
                    72:3a:95:ef:82:ab:a1:5e:37:c6:76:49:01:50:b5:
                    fa:7f:10:2d:27:b4:9d:ee:51:ab:fd:bf:22:68:e6:
                    51:76:5f:18:f7:80:58:25:aa:08:f7:3b:9f:c8:94:
                    31:48:f0:7a:1c:4c:21:cf:86:92:bd:bf:c1:71:90:
                    bc:b0:57:32:ec:a6:7f:9f:78:63:2a:4e:0c:3b:02:
                    ba:6f:c7:32:9f:cc:7e:ae:34:a6:25:fa:a2:c1:aa:
                    cb:a2:a4:be:aa:89:56:cb:30:b5:87:46:ad:4c:a9:
                    66:bb:b0:15:3d:72:e1:62:4c:1f:d2:e2:3b:05:c8:
                    d7:18:99:6e:30:18:c8:f0:63:22:f8:8d:cf:d4:b6:
                    d9:f3:a2:53:c9:ab:6d:83:4d:86:e0:65:4a:13:0b:
                    7f:32:6e:f5:98:5c:91:ce:3c:53:40:55:ce:2e:91:
                    9b:ec:3e:21:2a:63:bf:c1:02:32:af:37:77:13:f0:
                    39:d5:8d:81:a6:10:37:9c:0a:6c:4f:2e:d9:9f:70:
                    cb:9e:e8:10:9d:95:b8:19:b1:a9:11:69:fc:a7:0b:
                    27:36:d7:fc:2d:01:5e:e4:13:46:95:4d:e0:ac:a7:
                    c8:8e:e7:09:52:41:c5:0b:dc:6b:a4:42:0b:29:3e:
                    fc:0b:69:c9:ba:85:21:83:d9:d7:db:ef:d8:d1:6c:
                    cb:3e:95:48:f4:0d:b5:07:48:34:d0:71:55:ae:f3:
                    b2:bd:32:92:e6:d4:f4:dc:d5:11:4b:ec:40:74:7e:
                    31:5c:b4:5c:03:74:4a:c4:70:97:cb:5d:c8:53:28:
                    00:af:c5:fc:c3:99:76:40:d2:f4:fa:88:88:e8:a2:
                    47:d6:d8:ce:61:ec:c0:14:a4:a8:7e:a2:51:28:44:
                    02:92:43:64:16:cf:5a:20:05:0e:83:32:49:48:82:
                    d5:5e:fe:5a:01:5c:df:95:66:41:e3:68:35:bd:b5:
                    67:db:41:6f:90:21:0d:bc:7d:fd:af:c7:35:7a:ed:
                    8c:f6:6e:cb:fa:95:46:70:44:31:21:d2:2f:46:6a:
                    a2:c8:c9:e2:79:fd:59:71:8d:ff:9c:8f:68:dc:b0:
                    97:01:5c:58:c7:4d:9a:b3:ff:8f:42:ad:4a:9a:5c:
                    c6:fe:7e:53:a8:6c:11:9a:4e:89:5a:85:73:46:ae:
                    85:f6:e7
                Exponent: 65537 (0x10001)
        X509v3 extensions:
            X509v3 Basic Constraints: 
                CA:FALSE
            X509v3 Key Usage: 
                Digital Signature, Key Encipherment
            X509v3 Subject Alternative Name: 
                DNS:localhost
            X509v3 Subject Key Identifier: 
                2D:7D:4C:70:77:46:A1:25:72:36:21:F0:A2:24:B7:C3:88:43:C0:9D
            X509v3 Authority Key Identifier: 
                3F:87:19:0A:2D:03:0B:BD:2A:F1:04:90:64:5E:31:7C:1E:5D:93:80
    Signature Algorithm: sha256WithRSAEncryption
    Signature Value:
        72:01:07:5d:e1:92:ed:95:5b:53:49:fa:13:90:1c:b4:9d:84:
        d4:2e:51:69:20:44:24:66:52:34:0c:88:12:23:f4:c3:08:86:
        87:7c:80:c8:e4:e5:c5:d9:84:25:b0:38:57:af:64:3b:94:8a:
        8d:ab:1e:44:fb:92:f6:b3:ac:ea:27:41:e3:6b:f3:ea:6f:69:
        90:64:66:7d:b6:20:a9:1e:10:59:0a:02:e0:9b:02:94:73:1d:
        f8:31:e3:ac:33:8a:f5:0e:59:11:07:ce:45:fd:28:1c:df:a6:
        40:9b:d5:79:fa:98:e2:f4:0d:bc:c1:4a:de:d6:f4:2a:8a:e4:
        ac:0c:8d:41:7f:b6:91:82:ec:12:4c:ad:2f:65:75:86:10:87:
        5e:14:fd:90:bc:ee:0b:20:d0:95:ed:da:a5:6f:e2:bb:9c:7a:
        23:e2:ea:2e:e8:ed:0e:98:9a:da:22:fe:94:b6:77:71:26:85:
        92:44:a4:7f:64:e2:37:9e:9b:9a:b3:e1:a3:5d:c2:de:24:c5:
        f1:46:7b:b5:f3:10:44:ee:3c:d3:29:12:d4:2c:f7:c1:48:3c:
        9b:84:de:70:fa:7f:57:5e:b5:89:fa:19:16:67:d7:b3:02:f3:
        06:ce:57:4b:4c:ba:ed:cd:47:d9:70:8b:0d:75:7b:cc:29:cb:
        f5:30:37:8a:c9:da:be:2e:85:c2:ee:14:88:70:d3:00:8a:9a:
        2a:e5:28:32:8d:2c:72:bd:45:e1:5b:bd:f2:04:99:a7:d3:0c:
        71:88:10:ab:2f:27:9b:ed:35:0f:19:61:57:be:fb:c3:ac:ad:
        9a:63:9b:d4:62:47:4d:3f:32:38:d1:d5:fe:c9:c0:a9:9e:b2:
        b8:43:01:6a:62:a0:7e:20:ef:fd:38:49:1c:12:73:98:bb:3c:
        96:e4:c7:b1:ab:a3:ae:f0:49:80:39:51:b4:cc:f3:8a:0c:6c:
        5a:06:21:de:4e:e8:4d:50:2b:2c:60:61:51:d7:27:14:3b:3a:
        3e:58:d1:b4:13:92:04:8e:48:a0:c2:c6:24:26:77:ab:87:2f:
        53:99:1c:88:cf:ba:82:bd:90:ef:0b:4b:50:7f:76:73:d7:f4:
        f8:a8:59:d4:2c:ef:a8:ee:2d:33:ae:66:86:43:15:47:af:c2:
        15:e4:ef:35:84:4d:7a:8d:cc:f0:dc:dd:b5:29:e3:12:4c:48:
        a2:ce:8e:6d:18:6c:73:66:21:66:0c:70:da:be:44:79:70:5d:
        23:99:9f:2b:06:b1:22:9c:c8:6f:e3:e1:9f:7f:cd:48:e6:6e:
        ee:8c:48:9d:a5:7d:e0:fc:1c:c4:94:26:1f:fd:7c:85:51:18:
        07:e0:7b:51:ac:45:ec:61
-----BEGIN CERTIFICATE-----
MIIFxzCCA6+gAwIBAgIBFzANBgkqhkiG9w0BAQsFADBlMQswCQYDVQQGEwJJVDEQ
MA4GA1UECAwHVHVzY2FueTENMAsGA1UEBwwEUGlzYTEWMBQGA1UECgwNR2FjaGFB
bmRHYW1lczENMAsGA1UECwwERGJDQTEOMAwGA1UEAwwFRGIgQ0EwHhcNMjQxMjA1
MTkzNzExWhcNMjcxMjA1MTkzNzExWjB3MQswCQYDVQQGEwJJVDEQMA4GA1UECAwH
VHVzY2FueTENMAsGA1UEBwwEUGlzYTEWMBQGA1UECgwNR2FjaGFBbmRHYW1lczEQ
MA4GA1UECwwHRGV2ZWxvcDEdMBsGA1UEAwwUc2VydmljZV9wdnBfZGJfcHJveHkw
ggIiMA0GCSqGSIb3DQEBAQUAA4ICDwAwggIKAoICAQC/KP6MNatcZ+z1squBdIOc
S2Uof0VsO+B82S5SbBeobW594txvGmlRSxL35oFDYefd/SouRgEnLkq3I1XsWNJ2
sck7l2BHIrCDEXI6le+Cq6FeN8Z2SQFQtfp/EC0ntJ3uUav9vyJo5lF2Xxj3gFgl
qgj3O5/IlDFI8HocTCHPhpK9v8FxkLywVzLspn+feGMqTgw7ArpvxzKfzH6uNKYl
+qLBqsuipL6qiVbLMLWHRq1MqWa7sBU9cuFiTB/S4jsFyNcYmW4wGMjwYyL4jc/U
ttnzolPJq22DTYbgZUoTC38ybvWYXJHOPFNAVc4ukZvsPiEqY7/BAjKvN3cT8DnV
jYGmEDecCmxPLtmfcMue6BCdlbgZsakRafynCyc21/wtAV7kE0aVTeCsp8iO5wlS
QcUL3GukQgspPvwLacm6hSGD2dfb79jRbMs+lUj0DbUHSDTQcVWu87K9MpLm1PTc
1RFL7EB0fjFctFwDdErEcJfLXchTKACvxfzDmXZA0vT6iIjookfW2M5h7MAUpKh+
olEoRAKSQ2QWz1ogBQ6DMklIgtVe/loBXN+VZkHjaDW9tWfbQW+QIQ28ff2vxzV6
7Yz2bsv6lUZwRDEh0i9GaqLIyeJ5/Vlxjf+cj2jcsJcBXFjHTZqz/49CrUqaXMb+
flOobBGaTolahXNGroX25wIDAQABo3AwbjAJBgNVHRMEAjAAMAsGA1UdDwQEAwIF
oDAUBgNVHREEDTALgglsb2NhbGhvc3QwHQYDVR0OBBYEFC19THB3RqElcjYh8KIk
t8OIQ8CdMB8GA1UdIwQYMBaAFD+HGQotAwu9KvEEkGReMXweXZOAMA0GCSqGSIb3
DQEBCwUAA4ICAQByAQdd4ZLtlVtTSfoTkBy0nYTULlFpIEQkZlI0DIgSI/TDCIaH
fIDI5OXF2YQlsDhXr2Q7lIqNqx5E+5L2s6zqJ0Hja/Pqb2mQZGZ9tiCpHhBZCgLg
mwKUcx34MeOsM4r1DlkRB85F/Sgc36ZAm9V5+pji9A28wUre1vQqiuSsDI1Bf7aR
guwSTK0vZXWGEIdeFP2QvO4LINCV7dqlb+K7nHoj4uou6O0OmJraIv6UtndxJoWS
RKR/ZOI3npuas+GjXcLeJMXxRnu18xBE7jzTKRLULPfBSDybhN5w+n9XXrWJ+hkW
Z9ezAvMGzldLTLrtzUfZcIsNdXvMKcv1MDeKydq+LoXC7hSIcNMAipoq5SgyjSxy
vUXhW73yBJmn0wxxiBCrLyeb7TUPGWFXvvvDrK2aY5vUYkdNPzI40dX+ycCpnrK4
QwFqYqB+IO/9OEkcEnOYuzyW5Mexq6Ou8EmAOVG0zPOKDGxaBiHeTuhNUCssYGFR
1ycUOzo+WNG0E5IEjkigwsYkJnerhy9TmRyIz7qCvZDvC0tQf3Zz1/T4qFnULO+o
7i0zrmaGQxVHr8IV5O81hE16jczw3N21KeMSTEiizo5tGGxzZiFmDHDavkR5cF0j
mZ8rBrEinMhv4+Gff81I5m7ujEidpX3g/BzElCYf/XyFURgH4HtRrEXsYQ==
-----END CERTIFICATE-----
