Certificate:
    Data:
        Version: 3 (0x2)
        Serial Number: 24 (0x18)
        Signature Algorithm: sha256WithRSAEncryption
        Issuer: C=IT, ST=Tuscany, L=Pisa, O=GachaAndGames, OU=DbCA, CN=Db CA
        Validity
            Not Before: Dec  5 19:37:42 2024 GMT
            Not After : Dec  5 19:37:42 2027 GMT
        Subject: C=IT, ST=Tuscany, L=Pisa, O=GachaAndGames, OU=Develop, CN=service_pvp_db_replica
        Subject Public Key Info:
            Public Key Algorithm: rsaEncryption
                Public-Key: (4096 bit)
                Modulus:
                    00:a4:e5:19:68:7e:75:b8:79:f7:d9:7e:a9:88:a3:
                    0c:35:12:a1:e4:c2:6c:02:18:79:3d:e2:88:d2:e5:
                    f6:37:74:b6:44:c2:4f:ea:e8:c5:b3:67:d4:d3:73:
                    89:75:d1:dc:9e:69:fa:b2:65:21:af:40:30:09:b1:
                    79:6d:55:84:e9:30:08:8e:1b:45:c9:0d:f0:1d:88:
                    e1:2d:d1:97:04:1f:6a:43:20:88:41:32:77:b2:33:
                    1f:ca:36:04:e0:de:35:28:90:78:68:b9:54:fe:6d:
                    fd:df:6c:b3:e4:08:d1:3f:12:84:de:bc:67:da:20:
                    b3:9c:27:78:9f:00:d3:7e:ca:b8:88:eb:54:bd:eb:
                    6f:d3:7d:ca:fa:7d:55:4f:9c:aa:f0:da:15:f2:d4:
                    d7:e5:44:53:e0:8a:8d:dd:dc:04:4f:0a:2c:93:aa:
                    b6:6f:a8:80:91:5e:67:a9:2c:e5:1f:0b:3b:1b:21:
                    60:09:98:49:9a:39:ac:d7:9e:4b:82:72:48:c4:e4:
                    8c:21:cc:1d:63:bc:14:a0:f7:30:d5:15:d1:1e:18:
                    4f:82:0e:73:52:7c:0b:3a:33:44:7b:2b:5b:8c:fc:
                    9c:cf:1f:1d:05:ff:47:9d:9a:a4:d3:1e:b4:ce:25:
                    01:b9:09:2c:c1:3d:89:46:02:7f:6e:6d:09:97:28:
                    6b:18:2a:9a:3b:56:95:be:bc:7e:f4:22:e7:4a:37:
                    14:e4:f9:ef:4a:9b:4b:e7:40:35:34:8e:68:29:63:
                    8d:47:5c:1a:87:6f:f0:fa:d6:89:0e:8a:0a:e8:a0:
                    47:e9:26:ff:36:17:ed:a0:7b:20:0e:d1:35:f6:57:
                    20:13:43:4b:73:50:16:4b:be:49:80:29:7e:f9:b1:
                    c8:d3:5c:55:7b:ec:23:45:2b:22:a5:06:e3:a7:0d:
                    df:6f:2d:19:c8:38:6d:6d:f9:ce:bd:11:83:bd:b9:
                    b7:a6:cc:eb:a1:65:78:f4:62:48:f8:22:69:b8:92:
                    13:28:35:b9:68:b5:11:c9:a0:f5:bb:63:00:79:ad:
                    db:24:53:aa:7b:5d:56:f0:73:4a:38:e2:72:05:c2:
                    42:f7:53:e0:51:42:69:d7:ff:8b:d3:b6:47:71:48:
                    42:5b:8b:26:63:cd:1b:22:82:51:29:49:20:f3:07:
                    21:be:95:b0:5d:7b:c4:e6:75:44:14:77:29:f6:b0:
                    74:2e:55:51:34:5e:89:1b:f4:16:ad:1a:a9:97:6e:
                    e8:0d:52:3c:78:6b:e2:fa:66:d4:7b:97:0c:32:7e:
                    bc:df:a9:ab:9a:10:5b:36:7c:f1:3c:90:86:e8:79:
                    10:e6:b0:5b:02:48:c1:10:21:96:6f:17:57:9a:80:
                    51:a4:83
                Exponent: 65537 (0x10001)
        X509v3 extensions:
            X509v3 Basic Constraints: 
                CA:FALSE
            X509v3 Key Usage: 
                Digital Signature, Key Encipherment
            X509v3 Subject Alternative Name: 
                DNS:localhost
            X509v3 Subject Key Identifier: 
                B5:FE:55:0C:7A:69:18:39:83:61:49:45:DA:C7:D2:5C:5B:19:31:48
            X509v3 Authority Key Identifier: 
                3F:87:19:0A:2D:03:0B:BD:2A:F1:04:90:64:5E:31:7C:1E:5D:93:80
    Signature Algorithm: sha256WithRSAEncryption
    Signature Value:
        3b:07:89:96:bb:e5:55:d7:b0:34:e1:49:35:e1:df:ba:ba:58:
        37:2d:5f:71:2f:9d:a1:dd:47:2e:2d:1a:4f:c0:31:e3:c1:34:
        ef:37:de:23:81:b1:86:c1:d7:3b:55:12:02:bc:38:a7:f6:f0:
        ef:5b:24:51:89:f3:11:e2:e1:a7:c4:ba:30:32:b1:22:a8:3d:
        70:5a:96:4c:1c:1c:f7:c3:09:f1:dc:d0:f0:22:77:bb:de:e5:
        d7:09:5e:98:96:e0:5d:4f:8a:79:c0:f0:28:30:09:06:aa:a1:
        66:e9:0f:4c:72:7d:c4:0b:39:36:a8:bd:9c:63:60:77:ca:ea:
        ed:2a:50:fe:e0:ae:5d:a7:0c:57:75:6a:44:39:93:3b:c4:32:
        82:e4:48:c1:89:1b:e3:6e:79:66:6e:3a:f6:67:83:e2:dc:cd:
        fd:56:95:f8:3d:94:73:3f:e8:80:cd:df:8f:16:a5:5e:fd:db:
        32:65:e8:ef:8d:79:28:12:8a:ec:cc:71:24:42:d8:9d:c6:cb:
        1a:df:7c:43:68:eb:4b:ee:1f:de:66:79:66:a6:47:90:14:68:
        51:50:e9:d7:85:1e:d3:da:c0:fa:e8:1f:da:42:57:28:7f:18:
        0c:7b:8e:30:58:21:25:b8:29:93:52:95:4d:ee:93:df:65:32:
        46:29:2c:6a:25:a0:33:55:8d:57:8e:c5:0b:0a:8c:ef:c1:9e:
        30:7c:ca:20:cb:ad:54:db:c0:0a:c0:4e:0d:3b:a7:df:74:74:
        5e:b1:de:31:49:68:51:94:4a:44:ba:da:80:33:5d:16:9c:ce:
        c7:75:9d:6b:3f:c4:bd:87:5a:cf:99:04:ba:cf:a9:e2:8e:86:
        c6:40:6c:51:d6:b6:57:7a:c3:c6:05:cc:da:07:f8:95:f1:57:
        e8:f2:ba:a4:1a:eb:64:f2:3d:55:ed:d5:01:e8:53:fc:38:de:
        79:d3:d1:1a:bf:fa:c1:05:52:1d:c5:bd:d8:87:76:fd:93:83:
        4b:23:1d:56:d0:61:21:a3:ea:ed:c5:ea:6e:9d:9a:21:9e:c3:
        d0:86:96:24:58:7a:93:d5:e4:49:3a:49:5e:d3:d4:39:73:2f:
        0f:0e:dc:6a:fe:87:e4:0e:83:ae:77:a8:e4:d0:03:33:ca:ee:
        e6:c8:69:d2:f8:7d:45:31:70:ee:81:fe:04:f5:8a:ae:9c:52:
        66:f8:17:8c:0a:a5:4b:b9:39:d9:83:ea:f6:2a:53:fe:eb:23:
        c8:05:4f:1c:e0:12:37:f1:17:c7:e5:be:e7:fd:7a:63:c6:2f:
        26:a9:19:d2:4e:32:82:70:c5:7e:4f:18:b0:13:7c:c1:0d:fe:
        77:19:97:96:91:17:7d:5e
-----BEGIN CERTIFICATE-----
MIIFyTCCA7GgAwIBAgIBGDANBgkqhkiG9w0BAQsFADBlMQswCQYDVQQGEwJJVDEQ
MA4GA1UECAwHVHVzY2FueTENMAsGA1UEBwwEUGlzYTEWMBQGA1UECgwNR2FjaGFB
bmRHYW1lczENMAsGA1UECwwERGJDQTEOMAwGA1UEAwwFRGIgQ0EwHhcNMjQxMjA1
MTkzNzQyWhcNMjcxMjA1MTkzNzQyWjB5MQswCQYDVQQGEwJJVDEQMA4GA1UECAwH
VHVzY2FueTENMAsGA1UEBwwEUGlzYTEWMBQGA1UECgwNR2FjaGFBbmRHYW1lczEQ
MA4GA1UECwwHRGV2ZWxvcDEfMB0GA1UEAwwWc2VydmljZV9wdnBfZGJfcmVwbGlj
YTCCAiIwDQYJKoZIhvcNAQEBBQADggIPADCCAgoCggIBAKTlGWh+dbh599l+qYij
DDUSoeTCbAIYeT3iiNLl9jd0tkTCT+roxbNn1NNziXXR3J5p+rJlIa9AMAmxeW1V
hOkwCI4bRckN8B2I4S3RlwQfakMgiEEyd7IzH8o2BODeNSiQeGi5VP5t/d9ss+QI
0T8ShN68Z9ogs5wneJ8A037KuIjrVL3rb9N9yvp9VU+cqvDaFfLU1+VEU+CKjd3c
BE8KLJOqtm+ogJFeZ6ks5R8LOxshYAmYSZo5rNeeS4JySMTkjCHMHWO8FKD3MNUV
0R4YT4IOc1J8CzozRHsrW4z8nM8fHQX/R52apNMetM4lAbkJLME9iUYCf25tCZco
axgqmjtWlb68fvQi50o3FOT570qbS+dANTSOaCljjUdcGodv8PrWiQ6KCuigR+km
/zYX7aB7IA7RNfZXIBNDS3NQFku+SYApfvmxyNNcVXvsI0UrIqUG46cN328tGcg4
bW35zr0Rg725t6bM66FlePRiSPgiabiSEyg1uWi1Ecmg9btjAHmt2yRTqntdVvBz
SjjicgXCQvdT4FFCadf/i9O2R3FIQluLJmPNGyKCUSlJIPMHIb6VsF17xOZ1RBR3
KfawdC5VUTReiRv0Fq0aqZdu6A1SPHhr4vpm1HuXDDJ+vN+pq5oQWzZ88TyQhuh5
EOawWwJIwRAhlm8XV5qAUaSDAgMBAAGjcDBuMAkGA1UdEwQCMAAwCwYDVR0PBAQD
AgWgMBQGA1UdEQQNMAuCCWxvY2FsaG9zdDAdBgNVHQ4EFgQUtf5VDHppGDmDYUlF
2sfSXFsZMUgwHwYDVR0jBBgwFoAUP4cZCi0DC70q8QSQZF4xfB5dk4AwDQYJKoZI
hvcNAQELBQADggIBADsHiZa75VXXsDThSTXh37q6WDctX3EvnaHdRy4tGk/AMePB
NO833iOBsYbB1ztVEgK8OKf28O9bJFGJ8xHi4afEujAysSKoPXBalkwcHPfDCfHc
0PAid7ve5dcJXpiW4F1PinnA8CgwCQaqoWbpD0xyfcQLOTaovZxjYHfK6u0qUP7g
rl2nDFd1akQ5kzvEMoLkSMGJG+NueWZuOvZng+Lczf1Wlfg9lHM/6IDN348WpV79
2zJl6O+NeSgSiuzMcSRC2J3GyxrffENo60vuH95meWamR5AUaFFQ6deFHtPawPro
H9pCVyh/GAx7jjBYISW4KZNSlU3uk99lMkYpLGoloDNVjVeOxQsKjO/BnjB8yiDL
rVTbwArATg07p990dF6x3jFJaFGUSkS62oAzXRaczsd1nWs/xL2HWs+ZBLrPqeKO
hsZAbFHWtld6w8YFzNoH+JXxV+jyuqQa62TyPVXt1QHoU/w43nnT0Rq/+sEFUh3F
vdiHdv2Tg0sjHVbQYSGj6u3F6m6dmiGew9CGliRYepPV5Ek6SV7T1DlzLw8O3Gr+
h+QOg653qOTQAzPK7ubIadL4fUUxcO6B/gT1iq6cUmb4F4wKpUu5OdmD6vYqU/7r
I8gFTxzgEjfxF8flvuf9emPGLyapGdJOMoJwxX5PGLATfMEN/ncZl5aRF31e
-----END CERTIFICATE-----
