Certificate:
    Data:
        Version: 3 (0x2)
        Serial Number: 3 (0x3)
        Signature Algorithm: sha256WithRSAEncryption
        Issuer: C=IT, ST=Tuscany, L=Pisa, O=GachaAndGames, OU=DbCA, CN=Db CA
        Validity
            Not Before: Dec  4 17:30:08 2024 GMT
            Not After : Dec  4 17:30:08 2027 GMT
        Subject: C=IT, ST=Tuscany, L=Pisa, O=GachaAndGames, OU=Develop, CN=service_auth_db_replica
        Subject Public Key Info:
            Public Key Algorithm: rsaEncryption
                Public-Key: (4096 bit)
                Modulus:
                    00:97:5b:00:37:41:6a:1a:5e:87:74:21:08:19:0b:
                    08:48:d0:ba:3e:fb:b4:3d:76:0b:50:d6:cf:b3:fa:
                    9f:f3:e6:25:8c:c8:21:46:79:83:34:9e:61:4e:3e:
                    1f:aa:fc:63:a3:f9:bc:39:08:b9:a4:0e:63:6f:5b:
                    01:9d:45:e6:10:6e:a5:29:14:9e:cd:39:8d:07:ed:
                    5a:a7:22:86:a6:8a:df:18:e2:cf:5a:04:43:a9:ea:
                    eb:bc:ae:93:4a:f0:1c:89:ba:e7:cd:5c:92:81:ba:
                    a2:df:d7:9f:aa:55:5a:c0:b3:fd:d0:45:52:f4:f0:
                    50:4e:4d:fa:33:45:e2:b1:65:5e:7f:ba:d7:d4:8f:
                    12:37:22:db:09:6d:62:a5:63:27:07:8f:f5:18:87:
                    4b:5e:4a:16:dc:72:44:62:05:82:2b:08:11:d7:c7:
                    84:31:0d:73:ef:65:27:09:b7:45:43:f1:a9:3c:5f:
                    4c:5c:e1:6d:3d:d0:81:86:70:ec:0e:b7:57:aa:3b:
                    4c:ef:eb:8a:95:81:8f:f0:d8:55:c4:9d:98:5b:1a:
                    0e:bb:78:a4:60:7b:c0:49:a8:ee:0d:a8:cb:ac:88:
                    57:9f:82:b4:4a:57:ff:21:e3:14:a7:d5:34:55:c5:
                    1e:30:ac:a4:d7:4f:75:a6:26:50:e5:7b:fa:dc:28:
                    93:2e:59:78:f5:92:6d:43:a0:a6:22:33:3f:6d:66:
                    b1:71:22:3a:81:62:27:ca:32:2e:73:96:3d:70:44:
                    b6:ec:26:73:5a:03:de:1a:72:e4:97:cb:59:e9:ae:
                    b5:47:cc:87:89:ae:4b:c2:ec:c0:16:62:41:b5:ab:
                    41:d8:29:b0:bd:0b:a6:04:ed:f0:1b:12:f7:1c:7f:
                    14:4f:1e:fb:4a:ce:d9:46:9d:dc:24:29:b7:b3:e4:
                    80:6d:4b:9f:3f:e6:24:45:98:f8:b9:e6:1d:f8:35:
                    4d:b1:d5:66:c8:8e:87:ea:44:d1:d4:ee:2b:d2:84:
                    c5:01:d0:3f:50:d4:49:8e:64:d2:17:ea:0c:90:22:
                    88:fc:bd:0d:95:64:82:1d:f3:c0:8e:cf:d1:d2:00:
                    ec:18:c2:51:c9:d6:d6:dc:a7:cb:e3:ea:2d:84:25:
                    8f:d9:ce:1b:99:67:e9:23:7f:4e:d1:e7:83:3b:1d:
                    0e:bf:1e:ee:75:c5:4d:22:42:30:7e:ff:32:7d:c2:
                    94:ec:61:81:a3:71:73:6b:58:e2:31:fc:b8:8f:01:
                    1d:a8:a5:e2:60:74:cb:72:f6:b4:43:59:6b:66:5f:
                    c0:7a:fc:6b:da:dd:2a:ae:58:23:6c:ce:1d:df:a9:
                    e2:dd:7c:07:6a:60:06:fe:49:1f:f3:0b:17:37:3d:
                    3b:a9:ab
                Exponent: 65537 (0x10001)
        X509v3 extensions:
            X509v3 Basic Constraints: 
                CA:FALSE
            X509v3 Key Usage: 
                Digital Signature, Key Encipherment
            X509v3 Subject Alternative Name: 
                DNS:localhost
            X509v3 Subject Key Identifier: 
                C0:68:CC:2E:6C:84:03:0C:82:C7:B6:48:C9:B4:4E:66:9E:42:D7:E6
            X509v3 Authority Key Identifier: 
                3F:87:19:0A:2D:03:0B:BD:2A:F1:04:90:64:5E:31:7C:1E:5D:93:80
    Signature Algorithm: sha256WithRSAEncryption
    Signature Value:
        7c:0f:53:f9:b8:c3:b3:2b:6b:d4:94:f0:93:4f:e8:87:85:24:
        ff:83:ef:ba:5a:ef:76:ee:ee:b7:15:e9:c6:7a:13:a3:fb:38:
        09:99:da:2b:03:60:d6:42:dc:bd:8f:37:72:25:14:99:c7:4c:
        b5:96:78:b6:70:75:45:a8:2c:7d:ed:20:09:17:63:c2:f5:ce:
        9f:bc:d5:ea:5c:60:fc:3c:aa:e2:78:d3:50:5a:e6:eb:fd:2d:
        d1:0e:b4:78:17:6d:ee:8f:d1:eb:89:cc:41:90:42:e2:dc:c6:
        95:c3:03:49:05:b0:7f:07:b6:d4:1c:93:36:c9:ee:6f:dc:0d:
        77:a9:67:8a:92:e2:72:7f:54:cc:c1:b7:1f:85:13:4c:14:e2:
        96:00:1a:dd:db:0b:24:3f:c1:67:37:e9:c4:69:f2:31:19:db:
        73:52:07:4c:c4:42:dd:de:15:46:d5:fc:d8:1a:f8:77:02:58:
        e0:5a:e8:f5:68:86:97:4f:1b:ae:51:2a:b8:07:d3:bf:12:b8:
        c0:a2:9a:47:8e:c3:18:5c:81:8c:b9:00:47:d9:73:32:04:9e:
        d4:3e:31:ab:2d:62:2a:55:71:56:50:99:29:28:2e:09:f4:f6:
        af:7e:8a:60:f3:7f:12:12:73:45:5a:98:f8:4d:a8:10:ce:df:
        38:aa:75:1a:09:12:b3:73:2e:47:5a:24:3e:b0:1f:1f:4c:66:
        48:0f:56:68:f0:31:45:06:53:0f:78:24:07:6c:d9:de:23:19:
        d8:d4:5f:4e:0c:90:c5:04:cc:ad:b2:5e:5e:e8:a0:1b:1f:a3:
        69:71:9e:f9:8f:35:13:7e:d2:c6:f8:71:0c:d0:a1:d9:86:95:
        bb:63:43:07:91:1a:6b:6f:b4:d6:e8:7b:86:1c:ab:ba:15:d5:
        cf:5e:df:fe:10:8d:dc:30:2f:e8:7e:f7:21:07:b6:82:6e:fd:
        79:76:b9:4f:38:ad:d6:a3:c2:73:bf:da:74:27:dd:d8:cb:f7:
        e0:b4:91:49:02:f8:ba:6a:68:bf:27:71:6f:6d:86:b2:bb:77:
        c6:3e:d8:59:bd:a9:00:b6:65:79:64:65:81:4e:46:86:12:9c:
        69:3d:b7:b2:fb:d8:76:df:ef:4c:eb:41:4d:5d:07:4c:6c:66:
        f0:d0:e8:35:fc:da:c4:df:5d:8c:52:aa:ca:d3:dc:50:43:ea:
        b5:c0:ac:3f:eb:d6:59:27:b5:07:14:93:b5:29:99:f8:9e:2e:
        19:c1:a4:bc:f1:e9:1a:5e:61:b8:fb:a1:bd:95:aa:ed:37:36:
        79:bc:5a:0a:16:fc:d1:9f:ca:57:1a:f6:28:b0:d6:c7:3b:05:
        15:d0:2a:ab:1b:2b:91:9c
-----BEGIN CERTIFICATE-----
MIIFyjCCA7KgAwIBAgIBAzANBgkqhkiG9w0BAQsFADBlMQswCQYDVQQGEwJJVDEQ
MA4GA1UECAwHVHVzY2FueTENMAsGA1UEBwwEUGlzYTEWMBQGA1UECgwNR2FjaGFB
bmRHYW1lczENMAsGA1UECwwERGJDQTEOMAwGA1UEAwwFRGIgQ0EwHhcNMjQxMjA0
MTczMDA4WhcNMjcxMjA0MTczMDA4WjB6MQswCQYDVQQGEwJJVDEQMA4GA1UECAwH
VHVzY2FueTENMAsGA1UEBwwEUGlzYTEWMBQGA1UECgwNR2FjaGFBbmRHYW1lczEQ
MA4GA1UECwwHRGV2ZWxvcDEgMB4GA1UEAwwXc2VydmljZV9hdXRoX2RiX3JlcGxp
Y2EwggIiMA0GCSqGSIb3DQEBAQUAA4ICDwAwggIKAoICAQCXWwA3QWoaXod0IQgZ
CwhI0Lo++7Q9dgtQ1s+z+p/z5iWMyCFGeYM0nmFOPh+q/GOj+bw5CLmkDmNvWwGd
ReYQbqUpFJ7NOY0H7VqnIoamit8Y4s9aBEOp6uu8rpNK8ByJuufNXJKBuqLf15+q
VVrAs/3QRVL08FBOTfozReKxZV5/utfUjxI3ItsJbWKlYycHj/UYh0teShbcckRi
BYIrCBHXx4QxDXPvZScJt0VD8ak8X0xc4W090IGGcOwOt1eqO0zv64qVgY/w2FXE
nZhbGg67eKRge8BJqO4NqMusiFefgrRKV/8h4xSn1TRVxR4wrKTXT3WmJlDle/rc
KJMuWXj1km1DoKYiMz9tZrFxIjqBYifKMi5zlj1wRLbsJnNaA94acuSXy1nprrVH
zIeJrkvC7MAWYkG1q0HYKbC9C6YE7fAbEvccfxRPHvtKztlGndwkKbez5IBtS58/
5iRFmPi55h34NU2x1WbIjofqRNHU7ivShMUB0D9Q1EmOZNIX6gyQIoj8vQ2VZIId
88COz9HSAOwYwlHJ1tbcp8vj6i2EJY/ZzhuZZ+kjf07R54M7HQ6/Hu51xU0iQjB+
/zJ9wpTsYYGjcXNrWOIx/LiPAR2opeJgdMty9rRDWWtmX8B6/Gva3SquWCNszh3f
qeLdfAdqYAb+SR/zCxc3PTupqwIDAQABo3AwbjAJBgNVHRMEAjAAMAsGA1UdDwQE
AwIFoDAUBgNVHREEDTALgglsb2NhbGhvc3QwHQYDVR0OBBYEFMBozC5shAMMgse2
SMm0TmaeQtfmMB8GA1UdIwQYMBaAFD+HGQotAwu9KvEEkGReMXweXZOAMA0GCSqG
SIb3DQEBCwUAA4ICAQB8D1P5uMOzK2vUlPCTT+iHhST/g++6Wu927u63FenGehOj
+zgJmdorA2DWQty9jzdyJRSZx0y1lni2cHVFqCx97SAJF2PC9c6fvNXqXGD8PKri
eNNQWubr/S3RDrR4F23uj9HricxBkELi3MaVwwNJBbB/B7bUHJM2ye5v3A13qWeK
kuJyf1TMwbcfhRNMFOKWABrd2wskP8FnN+nEafIxGdtzUgdMxELd3hVG1fzYGvh3
AljgWuj1aIaXTxuuUSq4B9O/ErjAoppHjsMYXIGMuQBH2XMyBJ7UPjGrLWIqVXFW
UJkpKC4J9Pavfopg838SEnNFWpj4TagQzt84qnUaCRKzcy5HWiQ+sB8fTGZID1Zo
8DFFBlMPeCQHbNneIxnY1F9ODJDFBMytsl5e6KAbH6NpcZ75jzUTftLG+HEM0KHZ
hpW7Y0MHkRprb7TW6HuGHKu6FdXPXt/+EI3cMC/ofvchB7aCbv15drlPOK3Wo8Jz
v9p0J93Yy/fgtJFJAvi6ami/J3FvbYayu3fGPthZvakAtmV5ZGWBTkaGEpxpPbey
+9h23+9M60FNXQdMbGbw0Og1/NrE312MUqrK09xQQ+q1wKw/69ZZJ7UHFJO1KZn4
ni4ZwaS88ekaXmG4+6G9lartNzZ5vFoKFvzRn8pXGvYosNbHOwUV0CqrGyuRnA==
-----END CERTIFICATE-----
