Certificate:
    Data:
        Version: 3 (0x2)
        Serial Number: 1 (0x1)
        Signature Algorithm: sha256WithRSAEncryption
        Issuer: C=IT, ST=Tuscany, L=Pisa, O=GachaAndGames, OU=DbCA, CN=Db CA
        Validity
            Not Before: Dec  4 16:38:06 2024 GMT
            Not After : Dec  4 16:38:06 2027 GMT
        Subject: C=IT, ST=Tuscany, L=Pisa, O=GachaAndGames, OU=Develop, CN=service_auth_db_proxy
        Subject Public Key Info:
            Public Key Algorithm: rsaEncryption
                Public-Key: (4096 bit)
                Modulus:
                    00:8a:53:10:60:e1:ee:9a:1d:98:5e:43:41:ba:5f:
                    02:83:17:4e:ce:e3:bc:96:a6:d9:0d:72:8e:92:5f:
                    4d:14:5b:79:1d:38:32:49:ad:b3:6d:5d:5b:3a:ba:
                    1b:ed:58:6f:a9:cd:ad:b0:3c:03:df:68:04:aa:03:
                    6e:77:25:de:4a:f9:19:8f:44:79:2a:b6:20:9c:b2:
                    36:93:52:0a:6d:6d:6a:9e:cf:3b:bd:e8:07:f9:21:
                    2d:ee:39:9e:31:c7:11:ce:48:91:a4:0f:72:7b:0f:
                    cc:6e:bb:af:c1:e0:03:8f:61:fe:fc:0a:db:62:0c:
                    54:24:44:33:26:31:a2:1a:68:43:1e:b4:ab:1c:e0:
                    f1:37:11:c1:fb:be:41:1e:c3:9e:31:2e:c6:c6:1b:
                    be:c6:d8:89:2a:21:af:76:99:53:56:ff:41:72:a3:
                    79:a1:f5:4f:19:d5:08:59:c5:a7:68:8f:e8:e1:50:
                    d5:af:6e:37:f9:f2:e7:1e:f9:8c:21:57:82:d8:4b:
                    20:57:74:2f:17:cc:f6:37:2a:21:ae:ca:2e:d9:ee:
                    eb:6d:c5:6d:d4:ec:3e:b8:f8:67:54:1c:61:08:3e:
                    ea:25:09:ef:28:2d:1d:e8:81:5c:e0:92:86:ec:0a:
                    67:a7:7c:45:4b:05:5d:f7:e3:6c:44:53:e9:09:b2:
                    1a:b1:51:da:b1:86:1c:1d:a5:15:16:a0:4e:97:ed:
                    d0:8f:99:ae:f1:f5:5f:c7:a3:46:75:1e:76:db:4b:
                    45:4d:44:98:49:af:11:aa:e7:83:68:88:4c:3e:87:
                    b2:36:2d:90:9c:4c:c7:cc:20:46:58:b0:b8:a3:58:
                    28:e7:7a:ef:f0:a4:2b:6e:48:2b:9c:71:1e:9e:47:
                    42:fa:23:3c:d8:65:05:25:ae:bb:49:67:a1:7d:df:
                    62:1d:fc:e0:a3:dc:b9:44:64:6f:ed:1d:a6:fa:a9:
                    3e:22:c7:61:c7:52:8d:70:47:7a:fb:c4:14:5a:ef:
                    9e:7d:f1:ea:a8:69:49:69:3f:60:b3:07:04:53:51:
                    be:c6:6f:da:fa:51:8d:28:a2:e4:88:1c:9f:a9:9f:
                    f8:56:e1:4e:c3:07:54:81:22:8e:f6:6f:fd:5a:00:
                    97:96:25:a6:57:cd:d2:04:4d:97:c7:57:e6:f4:b5:
                    d1:2e:1f:9e:13:94:7a:b0:f1:05:93:ee:aa:15:cd:
                    9c:38:d4:b9:c1:48:72:8e:21:46:4a:8b:37:eb:26:
                    1e:78:22:35:13:1a:22:47:94:5f:81:8e:ff:fd:c6:
                    b6:7c:53:50:cd:a7:b8:c9:21:7a:b9:fa:6d:63:9c:
                    ee:52:bd:e4:42:22:9f:b5:dc:a8:8e:79:6f:2a:07:
                    f8:5c:97
                Exponent: 65537 (0x10001)
        X509v3 extensions:
            X509v3 Basic Constraints: 
                CA:FALSE
            X509v3 Key Usage: 
                Digital Signature, Key Encipherment
            X509v3 Subject Alternative Name: 
                DNS:localhost
            X509v3 Subject Key Identifier: 
                F0:52:34:BB:03:C3:42:09:77:EA:99:1E:6C:21:9C:C2:D9:21:7A:A8
            X509v3 Authority Key Identifier: 
                3F:87:19:0A:2D:03:0B:BD:2A:F1:04:90:64:5E:31:7C:1E:5D:93:80
    Signature Algorithm: sha256WithRSAEncryption
    Signature Value:
        06:b4:76:e8:2c:0a:ed:ae:05:b6:30:f5:88:bd:dd:94:e8:3e:
        e0:bc:0b:de:a7:e9:cd:73:da:da:d5:e1:77:46:ba:b8:87:6e:
        69:01:4a:63:3e:55:16:3e:59:e5:89:c0:39:d7:78:11:81:09:
        f7:6b:9d:a0:8a:c3:0f:d9:29:6f:f2:6a:ac:bd:dc:94:04:20:
        cb:33:b0:ab:30:5b:f2:78:77:e3:23:ac:ea:58:c7:ac:e7:53:
        a9:84:bd:a3:8c:a0:65:67:c5:6b:10:cd:6d:14:26:73:62:db:
        e9:de:7c:0b:dc:b3:00:ac:08:09:3f:4c:db:4c:b3:cb:a2:a2:
        92:3a:fa:15:3b:b7:e7:2b:7f:6e:61:01:ec:9b:e7:95:54:e9:
        57:0e:d7:dc:00:52:a1:25:a1:b8:ab:02:ee:b2:17:42:5b:c8:
        63:fb:6b:8e:ec:d0:25:eb:c6:8e:51:a9:94:4f:44:34:40:e3:
        e3:57:ea:5b:18:12:7e:f2:98:db:b1:f2:65:89:3a:98:8d:f6:
        bb:5b:4d:1a:99:0d:8a:e2:8d:c5:21:36:d8:cc:e3:c9:66:ed:
        81:99:20:5a:97:87:31:ae:a0:02:da:d3:a7:ee:6c:ce:71:e0:
        da:47:c5:2c:19:f8:b7:95:cd:21:3f:29:ef:4a:9b:34:2e:ed:
        4c:6e:8c:89:d5:2e:ad:62:93:8b:bb:3d:9b:8a:72:30:ea:d5:
        f8:f1:8e:90:eb:53:6a:5b:49:98:37:11:db:ce:52:0e:0f:ff:
        3c:4f:95:b3:c0:42:cb:ca:4f:db:a0:47:c8:05:54:05:5b:be:
        5f:d3:fe:c2:23:76:20:40:c7:aa:d6:a6:33:ab:62:2e:ca:4c:
        a1:a2:e0:83:79:28:7e:ec:46:27:49:b4:46:f5:30:58:86:5c:
        e2:0f:e1:29:0c:77:12:86:7a:29:36:5a:3e:01:fa:2e:8d:c7:
        2d:d8:4f:e7:e6:db:12:e9:12:9c:be:57:17:99:8f:c8:26:ba:
        9a:dc:8b:9d:c9:91:d8:07:2b:2b:f0:11:2c:c2:3c:a6:ba:92:
        4e:dc:f3:fc:91:76:48:39:6e:16:3b:9c:c0:86:69:dc:0e:9d:
        73:dc:2e:4c:cb:09:5b:3d:69:8e:8d:11:09:2e:53:c1:50:77:
        49:07:b3:8f:4e:86:ce:2d:a4:02:94:25:f4:00:aa:32:f1:d8:
        74:19:d6:63:98:5e:7e:7a:da:9f:58:df:8c:54:52:a6:a4:4b:
        6b:df:c2:d2:23:a4:a0:c4:0a:72:68:f8:d0:01:e9:4d:78:95:
        75:cd:9a:48:38:b0:f8:6e:23:a7:9b:d8:f2:00:19:98:a2:bd:
        59:3e:6b:33:1f:c2:8d:4a
-----BEGIN CERTIFICATE-----
MIIFyDCCA7CgAwIBAgIBATANBgkqhkiG9w0BAQsFADBlMQswCQYDVQQGEwJJVDEQ
MA4GA1UECAwHVHVzY2FueTENMAsGA1UEBwwEUGlzYTEWMBQGA1UECgwNR2FjaGFB
bmRHYW1lczENMAsGA1UECwwERGJDQTEOMAwGA1UEAwwFRGIgQ0EwHhcNMjQxMjA0
MTYzODA2WhcNMjcxMjA0MTYzODA2WjB4MQswCQYDVQQGEwJJVDEQMA4GA1UECAwH
VHVzY2FueTENMAsGA1UEBwwEUGlzYTEWMBQGA1UECgwNR2FjaGFBbmRHYW1lczEQ
MA4GA1UECwwHRGV2ZWxvcDEeMBwGA1UEAwwVc2VydmljZV9hdXRoX2RiX3Byb3h5
MIICIjANBgkqhkiG9w0BAQEFAAOCAg8AMIICCgKCAgEAilMQYOHumh2YXkNBul8C
gxdOzuO8lqbZDXKOkl9NFFt5HTgySa2zbV1bOrob7Vhvqc2tsDwD32gEqgNudyXe
SvkZj0R5KrYgnLI2k1IKbW1qns87vegH+SEt7jmeMccRzkiRpA9yew/MbruvweAD
j2H+/ArbYgxUJEQzJjGiGmhDHrSrHODxNxHB+75BHsOeMS7Gxhu+xtiJKiGvdplT
Vv9BcqN5ofVPGdUIWcWnaI/o4VDVr243+fLnHvmMIVeC2EsgV3QvF8z2Nyohrsou
2e7rbcVt1Ow+uPhnVBxhCD7qJQnvKC0d6IFc4JKG7Apnp3xFSwVd9+NsRFPpCbIa
sVHasYYcHaUVFqBOl+3Qj5mu8fVfx6NGdR5220tFTUSYSa8RqueDaIhMPoeyNi2Q
nEzHzCBGWLC4o1go53rv8KQrbkgrnHEenkdC+iM82GUFJa67SWehfd9iHfzgo9y5
RGRv7R2m+qk+Isdhx1KNcEd6+8QUWu+effHqqGlJaT9gswcEU1G+xm/a+lGNKKLk
iByfqZ/4VuFOwwdUgSKO9m/9WgCXliWmV83SBE2Xx1fm9LXRLh+eE5R6sPEFk+6q
Fc2cONS5wUhyjiFGSos36yYeeCI1ExoiR5RfgY7//ca2fFNQzae4ySF6ufptY5zu
Ur3kQiKftdyojnlvKgf4XJcCAwEAAaNwMG4wCQYDVR0TBAIwADALBgNVHQ8EBAMC
BaAwFAYDVR0RBA0wC4IJbG9jYWxob3N0MB0GA1UdDgQWBBTwUjS7A8NCCXfqmR5s
IZzC2SF6qDAfBgNVHSMEGDAWgBQ/hxkKLQMLvSrxBJBkXjF8Hl2TgDANBgkqhkiG
9w0BAQsFAAOCAgEABrR26CwK7a4FtjD1iL3dlOg+4LwL3qfpzXPa2tXhd0a6uIdu
aQFKYz5VFj5Z5YnAOdd4EYEJ92udoIrDD9kpb/JqrL3clAQgyzOwqzBb8nh34yOs
6ljHrOdTqYS9o4ygZWfFaxDNbRQmc2Lb6d58C9yzAKwICT9M20yzy6Kikjr6FTu3
5yt/bmEB7JvnlVTpVw7X3ABSoSWhuKsC7rIXQlvIY/trjuzQJevGjlGplE9ENEDj
41fqWxgSfvKY27HyZYk6mI32u1tNGpkNiuKNxSE22MzjyWbtgZkgWpeHMa6gAtrT
p+5sznHg2kfFLBn4t5XNIT8p70qbNC7tTG6MidUurWKTi7s9m4pyMOrV+PGOkOtT
altJmDcR285SDg//PE+Vs8BCy8pP26BHyAVUBVu+X9P+wiN2IEDHqtamM6tiLspM
oaLgg3kofuxGJ0m0RvUwWIZc4g/hKQx3EoZ6KTZaPgH6Lo3HLdhP5+bbEukSnL5X
F5mPyCa6mtyLncmR2AcrK/ARLMI8prqSTtzz/JF2SDluFjucwIZp3A6dc9wuTMsJ
Wz1pjo0RCS5TwVB3SQezj06Gzi2kApQl9ACqMvHYdBnWY5hefnran1jfjFRSpqRL
a9/C0iOkoMQKcmj40AHpTXiVdc2aSDiw+G4jp5vY8gAZmKK9WT5rMx/CjUo=
-----END CERTIFICATE-----
