Certificate:
    Data:
        Version: 3 (0x2)
        Serial Number: 9 (0x9)
        Signature Algorithm: sha256WithRSAEncryption
        Issuer: C=IT, ST=Tuscany, L=Pisa, O=GachaAndGames, OU=DbCA, CN=Db CA
        Validity
            Not Before: Dec  5 15:08:52 2024 GMT
            Not After : Dec  5 15:08:52 2027 GMT
        Subject: C=IT, ST=Tuscany, L=Pisa, O=GachaAndGames, OU=Develop, CN=service_currency_db_replica
        Subject Public Key Info:
            Public Key Algorithm: rsaEncryption
                Public-Key: (4096 bit)
                Modulus:
                    00:d0:8a:1b:07:c1:ae:89:f1:a0:f4:9d:aa:b0:68:
                    bc:52:7e:9e:95:5a:d7:66:48:d8:59:17:a5:67:0e:
                    2a:4c:83:e8:60:9c:6f:ec:0a:b9:f7:93:63:27:24:
                    33:37:45:b5:56:92:8e:61:16:91:89:49:92:64:7d:
                    16:3b:c7:db:7c:01:b1:9c:86:41:b3:41:98:76:22:
                    0a:c6:1e:4f:91:75:c2:9b:d5:fa:07:12:98:65:b9:
                    a8:eb:d7:2d:7d:64:18:78:31:eb:82:ea:1b:03:45:
                    a5:ef:6e:60:75:43:90:3f:3a:97:3f:7c:8f:f7:64:
                    f9:85:11:67:11:9a:32:b8:9f:e0:4d:cd:1b:c8:fd:
                    4c:ad:7f:68:81:e1:ad:ab:07:be:2a:5d:e7:fe:95:
                    da:ff:a6:fb:ee:3d:c5:19:0c:35:26:3a:19:3b:f9:
                    14:7a:c2:74:96:c4:29:de:49:87:3c:b3:a9:49:7b:
                    3e:77:f7:12:f5:4e:56:06:7c:b3:bb:8f:8c:33:b2:
                    69:4f:28:67:b9:fa:3d:18:b9:33:de:44:48:d2:42:
                    c3:ec:f0:6d:05:df:1d:81:09:39:8f:e9:7d:f9:a9:
                    61:06:4c:5f:06:cd:2a:74:58:32:19:52:b6:c8:72:
                    9e:62:fb:f9:eb:9b:f0:59:e2:73:59:d4:89:d0:e3:
                    9c:48:11:da:12:a3:4e:37:1f:84:3a:99:65:75:40:
                    ca:fb:39:7f:52:59:98:d0:d1:78:a9:62:59:1d:5b:
                    8f:fd:94:e4:83:8c:6a:27:1b:6d:49:f0:f1:d6:f3:
                    21:0e:59:40:b8:51:c3:84:57:ad:e6:67:1d:b2:87:
                    64:3e:e8:76:a7:5a:ed:fa:4b:4a:46:f0:95:82:f6:
                    df:c3:29:b3:83:1f:a7:44:07:f0:c1:7e:2c:fa:d2:
                    f6:9f:2b:f2:57:d3:75:69:3d:34:12:26:92:e8:d2:
                    f2:33:2a:e3:df:90:f7:c4:4a:b3:c9:df:a7:64:6f:
                    9d:56:1c:f0:ad:29:11:d6:4c:46:8b:b7:a4:df:f8:
                    95:77:e5:98:d3:75:13:d6:73:cb:cf:46:d7:f6:20:
                    b6:63:5d:c0:1c:9f:c7:51:c0:1f:18:a6:d5:7b:1a:
                    cc:ec:d5:05:5f:d3:72:ad:48:8f:57:35:1f:f6:86:
                    bb:b3:48:c4:0e:90:6e:fe:8d:f6:ce:9d:f5:6a:b6:
                    4b:a4:c4:40:7e:60:30:9a:34:36:8f:1a:75:44:da:
                    f3:fc:fa:0c:7b:68:c6:41:68:87:02:94:03:e9:5c:
                    b4:a4:d5:48:ad:e1:4c:b9:3e:a5:8a:66:bd:a3:ae:
                    e4:8a:fd:64:c6:fe:f9:58:e2:18:b7:73:3e:0c:90:
                    21:25:8d
                Exponent: 65537 (0x10001)
        X509v3 extensions:
            X509v3 Basic Constraints: 
                CA:FALSE
            X509v3 Key Usage: 
                Digital Signature, Key Encipherment
            X509v3 Subject Alternative Name: 
                DNS:localhost
            X509v3 Subject Key Identifier: 
                55:EE:24:B1:30:B4:15:EA:69:BD:9A:79:4E:48:BC:D7:9D:1B:CF:E6
            X509v3 Authority Key Identifier: 
                3F:87:19:0A:2D:03:0B:BD:2A:F1:04:90:64:5E:31:7C:1E:5D:93:80
    Signature Algorithm: sha256WithRSAEncryption
    Signature Value:
        00:f8:eb:9b:6b:d7:a5:a2:be:03:34:d2:0d:b5:f0:55:fb:30:
        e0:2f:c7:35:9d:26:6f:ce:7d:90:9e:48:fb:ff:a0:1d:19:25:
        15:1b:f3:0d:4f:99:05:ac:30:30:46:b7:a4:85:ce:d2:eb:bc:
        13:7a:c5:73:76:78:e1:1a:c9:c2:16:e2:42:52:83:67:34:60:
        c9:7a:e7:c7:a9:8e:7a:19:3f:c5:dc:b3:3c:0a:d7:8a:34:e6:
        9a:1d:58:e7:8a:d5:3d:f3:6d:78:21:5f:56:e4:b5:40:7a:6b:
        d5:b7:b5:83:51:81:38:0a:e9:52:76:44:d2:23:6c:39:77:64:
        e8:b7:19:d3:c3:7b:ba:c6:b3:9a:15:2c:63:89:bf:18:35:75:
        70:42:1d:44:c8:bc:6a:9b:35:ee:28:3c:bd:58:cf:30:56:c6:
        af:99:c6:05:8d:04:3c:7b:f6:84:96:26:0c:a8:6d:30:b6:f9:
        fb:1b:c3:5a:16:69:9f:3f:9e:f9:e2:3d:5d:f7:4e:56:7e:e4:
        cd:8e:72:9b:08:61:65:3c:16:7a:45:8d:35:69:33:8b:c0:9d:
        40:10:76:44:87:12:3f:98:7d:4b:0c:a3:31:9a:0d:58:ee:ad:
        df:04:00:87:e9:ac:ec:1d:04:85:ad:7c:65:46:58:2e:af:a2:
        a2:3f:21:a7:7b:f8:06:46:d7:20:ce:16:91:bf:62:94:65:02:
        93:56:3a:81:17:66:ca:5f:d1:8f:96:1f:f8:f5:2f:7b:cb:28:
        91:55:ce:0c:8d:1e:95:8b:89:a9:7b:b0:b4:3a:73:ea:97:9c:
        69:9b:81:dd:e4:cf:81:5a:ab:1c:ec:bc:3b:96:72:6d:e3:c8:
        1e:cb:d1:62:66:65:43:c2:b0:48:37:4b:9a:9e:1f:27:f8:9a:
        ed:38:d2:e5:0e:97:1f:f3:f6:cb:87:46:20:47:5c:7b:8d:03:
        54:0b:03:55:c5:d5:78:2f:5f:f7:85:21:ea:20:c5:17:88:54:
        fd:f9:b8:43:98:97:65:e9:7d:2c:06:b5:15:90:8f:3e:9b:ab:
        4d:60:e4:4e:35:49:e3:e7:06:86:c5:33:cb:6c:42:4a:ef:aa:
        1d:b2:25:5a:9a:6a:d1:aa:ff:e1:6e:b6:f1:d6:1e:dd:8a:ca:
        2f:a5:67:78:46:28:02:ab:c3:9b:ae:49:fb:24:56:22:a1:cb:
        80:bd:83:5a:4c:d1:0d:7c:04:8b:22:a4:47:59:98:51:61:46:
        70:c1:94:b6:7f:db:1f:4e:b5:eb:cf:4b:03:a8:d1:b1:5e:8f:
        5f:26:f7:b3:45:78:b1:44:b1:94:28:26:6f:3c:cf:44:b7:cf:
        ae:16:0d:93:eb:88:16:d6
-----BEGIN CERTIFICATE-----
MIIFzjCCA7agAwIBAgIBCTANBgkqhkiG9w0BAQsFADBlMQswCQYDVQQGEwJJVDEQ
MA4GA1UECAwHVHVzY2FueTENMAsGA1UEBwwEUGlzYTEWMBQGA1UECgwNR2FjaGFB
bmRHYW1lczENMAsGA1UECwwERGJDQTEOMAwGA1UEAwwFRGIgQ0EwHhcNMjQxMjA1
MTUwODUyWhcNMjcxMjA1MTUwODUyWjB+MQswCQYDVQQGEwJJVDEQMA4GA1UECAwH
VHVzY2FueTENMAsGA1UEBwwEUGlzYTEWMBQGA1UECgwNR2FjaGFBbmRHYW1lczEQ
MA4GA1UECwwHRGV2ZWxvcDEkMCIGA1UEAwwbc2VydmljZV9jdXJyZW5jeV9kYl9y
ZXBsaWNhMIICIjANBgkqhkiG9w0BAQEFAAOCAg8AMIICCgKCAgEA0IobB8GuifGg
9J2qsGi8Un6elVrXZkjYWRelZw4qTIPoYJxv7Aq595NjJyQzN0W1VpKOYRaRiUmS
ZH0WO8fbfAGxnIZBs0GYdiIKxh5PkXXCm9X6BxKYZbmo69ctfWQYeDHrguobA0Wl
725gdUOQPzqXP3yP92T5hRFnEZoyuJ/gTc0byP1MrX9ogeGtqwe+Kl3n/pXa/6b7
7j3FGQw1JjoZO/kUesJ0lsQp3kmHPLOpSXs+d/cS9U5WBnyzu4+MM7JpTyhnufo9
GLkz3kRI0kLD7PBtBd8dgQk5j+l9+alhBkxfBs0qdFgyGVK2yHKeYvv565vwWeJz
WdSJ0OOcSBHaEqNONx+EOplldUDK+zl/UlmY0NF4qWJZHVuP/ZTkg4xqJxttSfDx
1vMhDllAuFHDhFet5mcdsodkPuh2p1rt+ktKRvCVgvbfwymzgx+nRAfwwX4s+tL2
nyvyV9N1aT00EiaS6NLyMyrj35D3xEqzyd+nZG+dVhzwrSkR1kxGi7ek3/iVd+WY
03UT1nPLz0bX9iC2Y13AHJ/HUcAfGKbVexrM7NUFX9NyrUiPVzUf9oa7s0jEDpBu
/o32zp31arZLpMRAfmAwmjQ2jxp1RNrz/PoMe2jGQWiHApQD6Vy0pNVIreFMuT6l
ima9o67kiv1kxv75WOIYt3M+DJAhJY0CAwEAAaNwMG4wCQYDVR0TBAIwADALBgNV
HQ8EBAMCBaAwFAYDVR0RBA0wC4IJbG9jYWxob3N0MB0GA1UdDgQWBBRV7iSxMLQV
6mm9mnlOSLzXnRvP5jAfBgNVHSMEGDAWgBQ/hxkKLQMLvSrxBJBkXjF8Hl2TgDAN
BgkqhkiG9w0BAQsFAAOCAgEAAPjrm2vXpaK+AzTSDbXwVfsw4C/HNZ0mb859kJ5I
+/+gHRklFRvzDU+ZBawwMEa3pIXO0uu8E3rFc3Z44RrJwhbiQlKDZzRgyXrnx6mO
ehk/xdyzPArXijTmmh1Y54rVPfNteCFfVuS1QHpr1be1g1GBOArpUnZE0iNsOXdk
6LcZ08N7usazmhUsY4m/GDV1cEIdRMi8aps17ig8vVjPMFbGr5nGBY0EPHv2hJYm
DKhtMLb5+xvDWhZpnz+e+eI9XfdOVn7kzY5ymwhhZTwWekWNNWkzi8CdQBB2RIcS
P5h9SwyjMZoNWO6t3wQAh+ms7B0Eha18ZUZYLq+ioj8hp3v4BkbXIM4Wkb9ilGUC
k1Y6gRdmyl/Rj5Yf+PUve8sokVXODI0elYuJqXuwtDpz6pecaZuB3eTPgVqrHOy8
O5ZybePIHsvRYmZlQ8KwSDdLmp4fJ/ia7TjS5Q6XH/P2y4dGIEdce40DVAsDVcXV
eC9f94Uh6iDFF4hU/fm4Q5iXZel9LAa1FZCPPpurTWDkTjVJ4+cGhsUzy2xCSu+q
HbIlWppq0ar/4W628dYe3YrKL6VneEYoAqvDm65J+yRWIqHLgL2DWkzRDXwEiyKk
R1mYUWFGcMGUtn/bH061689LA6jRsV6PXyb3s0V4sUSxlCgmbzzPRLfPrhYNk+uI
FtY=
-----END CERTIFICATE-----
