Certificate:
    Data:
        Version: 3 (0x2)
        Serial Number: 11 (0xb)
        Signature Algorithm: sha256WithRSAEncryption
        Issuer: C=IT, ST=Tuscany, L=Pisa, O=GachaAndGames, OU=DbCA, CN=Db CA
        Validity
            Not Before: Dec  5 16:01:11 2024 GMT
            Not After : Dec  5 16:01:11 2027 GMT
        Subject: C=IT, ST=Tuscany, L=Pisa, O=GachaAndGames, OU=Develop, CN=service_feedback_db_replica
        Subject Public Key Info:
            Public Key Algorithm: rsaEncryption
                Public-Key: (4096 bit)
                Modulus:
                    00:eb:86:e1:7e:41:14:6c:cd:97:f3:f9:ee:06:95:
                    cf:51:57:5a:d0:6c:fe:bf:f1:0f:62:5e:2d:9a:da:
                    8c:7a:bd:b5:10:50:93:fe:73:76:49:8f:52:18:68:
                    0d:c0:d3:0e:9c:dc:8f:bb:23:c1:61:68:57:b6:26:
                    68:bb:e1:fb:9e:db:a2:2a:d5:de:31:e1:c7:9e:51:
                    39:99:7c:f8:1f:06:48:14:2e:70:67:e6:8b:0a:c3:
                    83:86:0d:cc:8f:93:b6:d2:f7:10:48:5c:2f:19:86:
                    d9:07:8d:5f:df:58:71:09:a3:c3:7a:6d:e3:a5:c8:
                    f7:81:cf:4d:aa:ce:6d:89:f6:02:d4:7c:7f:9e:6e:
                    98:e3:3a:d3:5a:15:03:1e:18:f4:5f:8f:6a:79:ed:
                    05:95:8a:90:78:d0:16:f2:35:06:df:63:95:fd:5a:
                    0f:a1:03:cf:74:9e:03:ee:1a:aa:cb:da:83:89:b0:
                    28:d8:07:d9:97:1c:c6:cd:34:59:d5:7d:cf:a8:7a:
                    2e:36:83:67:e3:e8:64:a6:2c:f1:d2:5b:1f:d9:c9:
                    78:ab:8a:f5:83:d6:d1:de:e4:53:87:22:46:3f:ee:
                    23:db:92:89:98:f9:12:da:da:55:0b:03:d0:c7:7f:
                    ca:c7:00:52:ed:ec:9f:da:3c:1e:26:95:01:08:ac:
                    59:c7:d1:d8:9f:c1:7c:76:f8:fa:6f:e6:c6:47:1c:
                    06:0c:0d:02:85:03:fe:a6:be:8f:54:01:06:34:18:
                    0b:41:78:57:14:0e:0f:7f:f2:68:c8:05:05:1e:26:
                    48:5a:6e:78:07:2b:ad:6d:8a:40:a6:0d:b4:5a:32:
                    10:97:a1:c5:fd:0d:74:8c:e4:8b:3d:b7:27:f2:24:
                    ec:08:e6:66:88:bd:8d:45:6f:31:9a:6b:8b:f9:59:
                    10:18:ba:8f:59:9a:6e:c5:a1:da:ce:82:01:66:11:
                    78:6f:cb:da:e5:e2:0b:01:16:66:a5:58:97:8b:a9:
                    51:a1:a7:55:3e:52:d8:6b:87:a9:1f:64:9a:88:d9:
                    70:eb:6a:ef:90:84:6b:20:2c:a4:99:dc:c9:d7:30:
                    20:35:a2:98:49:bf:69:fc:a2:1c:8a:d1:67:db:d4:
                    3e:8b:0a:a6:92:f7:42:24:e9:4d:67:83:6d:28:b0:
                    10:0e:0e:70:5e:1f:41:95:e8:72:61:05:4d:4b:1c:
                    ab:a1:22:7e:3d:71:ee:f9:0c:49:d1:cd:8f:94:d3:
                    17:10:dc:6e:5f:2e:2b:f9:1a:d3:83:93:69:3a:e6:
                    a6:bf:f6:4f:ff:03:8b:88:ce:ba:1f:29:26:4b:70:
                    cb:08:e0:8b:75:24:16:c7:f1:c3:13:63:04:64:06:
                    84:e7:ab
                Exponent: 65537 (0x10001)
        X509v3 extensions:
            X509v3 Basic Constraints: 
                CA:FALSE
            X509v3 Key Usage: 
                Digital Signature, Key Encipherment
            X509v3 Subject Alternative Name: 
                DNS:localhost
            X509v3 Subject Key Identifier: 
                E2:BF:9D:86:23:AC:D3:F6:17:C0:7F:68:2E:A9:4D:53:E2:36:63:87
            X509v3 Authority Key Identifier: 
                3F:87:19:0A:2D:03:0B:BD:2A:F1:04:90:64:5E:31:7C:1E:5D:93:80
    Signature Algorithm: sha256WithRSAEncryption
    Signature Value:
        5e:8a:cb:f9:2b:88:10:7b:ac:6b:e2:90:57:4e:c5:34:60:bb:
        8e:a1:22:70:07:9a:af:93:bc:ae:58:28:c8:89:a6:12:a3:0c:
        24:32:bd:34:dc:17:27:6f:61:14:5d:38:fd:b9:97:c3:44:1a:
        fd:57:6d:c7:c0:6c:65:16:a2:3e:71:b7:2e:ab:76:e0:75:2e:
        0c:bd:ef:68:8e:4d:e8:09:ae:1a:6c:0b:80:d3:e6:dc:c3:8d:
        4c:28:2a:55:82:7c:63:74:23:a3:31:65:6a:ce:08:44:9a:1b:
        3d:1e:6d:1f:79:b7:05:94:2f:74:a2:3d:c2:dd:e9:58:e8:84:
        53:61:d0:b7:7a:d1:12:a1:92:bc:86:83:73:d4:b0:40:ad:64:
        36:57:53:11:6d:60:f2:62:6b:af:1e:0e:e3:08:c4:8b:f5:c2:
        48:14:96:a4:f2:ad:b8:4e:14:2d:97:ed:ef:41:ed:24:3d:bc:
        13:3c:7d:d4:ae:8b:df:3c:3f:f2:ac:21:1a:a5:25:e7:d9:4a:
        90:85:86:eb:7a:2b:4a:0c:be:1f:3f:c9:56:f9:d5:36:80:11:
        59:aa:90:02:6a:3c:17:65:4f:36:3e:9f:2b:9b:59:f9:27:c1:
        ad:8d:11:18:8d:92:9e:c4:97:a4:da:bd:8d:eb:a1:5a:cb:d9:
        fd:40:c6:68:9d:3f:f5:d6:2f:6a:b5:69:a1:f3:ef:ec:55:6a:
        78:54:9f:79:45:13:20:0a:44:6b:3a:21:a7:ef:3d:0a:a8:f8:
        59:1a:16:5c:7c:1b:a8:ba:68:dc:a3:e8:a2:b6:d9:6c:2f:57:
        42:c2:cc:cf:50:88:c9:4d:a3:cf:a8:65:eb:fc:dc:88:76:f3:
        12:3e:47:46:97:24:96:0f:22:de:07:40:1e:a4:af:46:27:bd:
        6e:e7:7a:b1:03:a6:ff:dd:ff:17:79:67:00:05:b9:52:51:ee:
        c2:62:fa:b6:f6:7b:e7:1b:b7:2e:df:a7:cf:82:b3:2a:26:26:
        33:6a:2f:45:79:14:6d:c6:4e:79:99:99:9a:49:9d:eb:2d:0a:
        ac:b4:ab:20:8f:8d:51:ae:33:e2:a4:c1:33:85:16:71:e7:4a:
        04:0f:24:25:e8:9a:1c:8d:c5:1e:15:2e:44:e7:2d:ef:39:c0:
        94:ad:08:6b:79:9e:c2:00:77:4f:63:a0:76:ad:1d:b1:5b:ee:
        f7:7d:ea:b6:82:ed:41:6b:86:99:cb:d4:9d:08:5e:85:68:1b:
        07:2a:ea:01:90:5f:8d:7c:e7:73:89:93:76:04:e9:83:ab:7c:
        24:72:2e:9d:27:af:ef:07:52:ff:b0:42:1a:28:ce:ed:35:05:
        58:de:d4:6d:92:77:3f:dd
-----BEGIN CERTIFICATE-----
MIIFzjCCA7agAwIBAgIBCzANBgkqhkiG9w0BAQsFADBlMQswCQYDVQQGEwJJVDEQ
MA4GA1UECAwHVHVzY2FueTENMAsGA1UEBwwEUGlzYTEWMBQGA1UECgwNR2FjaGFB
bmRHYW1lczENMAsGA1UECwwERGJDQTEOMAwGA1UEAwwFRGIgQ0EwHhcNMjQxMjA1
MTYwMTExWhcNMjcxMjA1MTYwMTExWjB+MQswCQYDVQQGEwJJVDEQMA4GA1UECAwH
VHVzY2FueTENMAsGA1UEBwwEUGlzYTEWMBQGA1UECgwNR2FjaGFBbmRHYW1lczEQ
MA4GA1UECwwHRGV2ZWxvcDEkMCIGA1UEAwwbc2VydmljZV9mZWVkYmFja19kYl9y
ZXBsaWNhMIICIjANBgkqhkiG9w0BAQEFAAOCAg8AMIICCgKCAgEA64bhfkEUbM2X
8/nuBpXPUVda0Gz+v/EPYl4tmtqMer21EFCT/nN2SY9SGGgNwNMOnNyPuyPBYWhX
tiZou+H7ntuiKtXeMeHHnlE5mXz4HwZIFC5wZ+aLCsODhg3Mj5O20vcQSFwvGYbZ
B41f31hxCaPDem3jpcj3gc9Nqs5tifYC1Hx/nm6Y4zrTWhUDHhj0X49qee0FlYqQ
eNAW8jUG32OV/VoPoQPPdJ4D7hqqy9qDibAo2AfZlxzGzTRZ1X3PqHouNoNn4+hk
pizx0lsf2cl4q4r1g9bR3uRThyJGP+4j25KJmPkS2tpVCwPQx3/KxwBS7eyf2jwe
JpUBCKxZx9HYn8F8dvj6b+bGRxwGDA0ChQP+pr6PVAEGNBgLQXhXFA4Pf/JoyAUF
HiZIWm54ByutbYpApg20WjIQl6HF/Q10jOSLPbcn8iTsCOZmiL2NRW8xmmuL+VkQ
GLqPWZpuxaHazoIBZhF4b8va5eILARZmpViXi6lRoadVPlLYa4epH2SaiNlw62rv
kIRrICykmdzJ1zAgNaKYSb9p/KIcitFn29Q+iwqmkvdCJOlNZ4NtKLAQDg5wXh9B
lehyYQVNSxyroSJ+PXHu+QxJ0c2PlNMXENxuXy4r+RrTg5NpOuamv/ZP/wOLiM66
HykmS3DLCOCLdSQWx/HDE2MEZAaE56sCAwEAAaNwMG4wCQYDVR0TBAIwADALBgNV
HQ8EBAMCBaAwFAYDVR0RBA0wC4IJbG9jYWxob3N0MB0GA1UdDgQWBBTiv52GI6zT
9hfAf2guqU1T4jZjhzAfBgNVHSMEGDAWgBQ/hxkKLQMLvSrxBJBkXjF8Hl2TgDAN
BgkqhkiG9w0BAQsFAAOCAgEAXorL+SuIEHusa+KQV07FNGC7jqEicAear5O8rlgo
yImmEqMMJDK9NNwXJ29hFF04/bmXw0Qa/Vdtx8BsZRaiPnG3Lqt24HUuDL3vaI5N
6AmuGmwLgNPm3MONTCgqVYJ8Y3QjozFlas4IRJobPR5tH3m3BZQvdKI9wt3pWOiE
U2HQt3rREqGSvIaDc9SwQK1kNldTEW1g8mJrrx4O4wjEi/XCSBSWpPKtuE4ULZft
70HtJD28Ezx91K6L3zw/8qwhGqUl59lKkIWG63orSgy+Hz/JVvnVNoARWaqQAmo8
F2VPNj6fK5tZ+SfBrY0RGI2SnsSXpNq9jeuhWsvZ/UDGaJ0/9dYvarVpofPv7FVq
eFSfeUUTIApEazohp+89Cqj4WRoWXHwbqLpo3KPoorbZbC9XQsLMz1CIyU2jz6hl
6/zciHbzEj5HRpcklg8i3gdAHqSvRie9bud6sQOm/93/F3lnAAW5UlHuwmL6tvZ7
5xu3Lt+nz4KzKiYmM2ovRXkUbcZOeZmZmkmd6y0KrLSrII+NUa4z4qTBM4UWcedK
BA8kJeiaHI3FHhUuROct7znAlK0Ia3mewgB3T2Ogdq0dsVvu933qtoLtQWuGmcvU
nQhehWgbByrqAZBfjXznc4mTdgTpg6t8JHIunSev7wdS/7BCGijO7TUFWN7UbZJ3
P90=
-----END CERTIFICATE-----
