Certificate:
    Data:
        Version: 3 (0x2)
        Serial Number: 17 (0x11)
        Signature Algorithm: sha256WithRSAEncryption
        Issuer: C=IT, ST=Tuscany, L=Pisa, O=GachaAndGames, OU=DbCA, CN=Db CA
        Validity
            Not Before: Dec  5 19:11:26 2024 GMT
            Not After : Dec  5 19:11:26 2027 GMT
        Subject: C=IT, ST=Tuscany, L=Pisa, O=inventoryAndGames, OU=Develop, CN=service_inventory_db_proxy
        Subject Public Key Info:
            Public Key Algorithm: rsaEncryption
                Public-Key: (4096 bit)
                Modulus:
                    00:9c:ac:0d:a4:ec:48:16:d9:fb:f3:ef:10:b9:2e:
                    df:57:4a:4d:55:25:34:db:c3:52:dd:52:04:8d:f4:
                    07:26:ce:7a:b8:ed:69:80:24:35:b9:e7:9c:0b:f7:
                    e9:57:e6:4f:54:14:ed:43:6f:d8:96:5e:42:83:39:
                    5d:f8:24:f7:2f:1a:55:4a:bc:38:0e:4f:02:f0:94:
                    78:3a:cf:fd:17:ff:57:3c:7e:24:2f:9b:a3:eb:d8:
                    d7:09:2d:d0:e9:66:88:03:e3:0f:ff:52:4f:d3:99:
                    20:98:b0:6c:3b:3b:8c:bf:30:4a:91:c1:c0:c5:77:
                    ce:5c:88:2c:c3:68:81:1e:95:71:1b:49:64:0f:7e:
                    08:fa:3a:fb:c0:51:4d:0e:d5:7a:7e:e9:11:c2:1c:
                    92:16:de:cb:a1:c5:88:6a:79:8f:1c:eb:ad:ae:6a:
                    56:ec:62:b3:78:3f:eb:61:2d:4c:46:78:9e:1f:cc:
                    f7:1a:cc:f1:ed:b2:7f:44:01:ab:9b:4f:73:59:5c:
                    95:7f:e9:4f:fb:fd:90:c2:3c:c2:69:d5:e5:10:15:
                    e9:a9:72:4f:0e:de:9c:99:22:92:21:6b:65:fb:82:
                    60:fa:a8:d2:69:9c:31:77:4c:15:34:d9:51:14:9c:
                    e0:81:d3:bd:a4:1c:b8:4d:16:0d:8c:79:15:8d:4a:
                    3c:84:fd:a5:79:39:87:21:5a:3b:da:5d:59:d1:29:
                    52:42:8b:45:c6:f0:ed:92:c7:b7:7a:92:8c:8d:55:
                    ef:9a:05:52:6d:15:a9:7e:28:e5:1f:db:03:61:1a:
                    51:38:32:58:e1:34:96:75:20:eb:4b:53:ab:ff:08:
                    fa:d2:b7:b8:37:35:0d:9e:73:0c:2e:ef:be:9b:8d:
                    0e:5c:79:37:f1:ef:94:10:70:06:32:11:9e:ee:5a:
                    da:21:59:ec:94:ad:07:36:26:4b:66:01:88:96:4b:
                    17:62:ea:0d:a7:78:d3:ad:ee:6e:11:ed:94:73:48:
                    38:37:c3:ef:f3:8d:3a:bf:f2:d1:60:6a:ac:b1:9d:
                    99:c5:3b:69:1b:0c:42:e9:d3:82:4d:af:16:0b:65:
                    62:a1:5c:b5:a8:5d:c8:66:2b:c6:15:32:c1:9d:99:
                    d1:a1:6e:79:42:64:75:83:31:aa:44:10:18:74:e5:
                    bb:39:06:a1:d6:05:b6:e0:5d:eb:d9:25:a8:12:d0:
                    8b:5b:35:fd:cb:97:ec:73:f4:bf:11:9b:45:c9:fa:
                    0d:fb:02:91:0d:ec:1d:43:53:8d:a9:44:65:36:b8:
                    24:a5:b4:45:e3:03:3b:a2:cc:51:ca:6b:79:17:9c:
                    28:e3:ec:c3:4e:e9:b3:a3:05:eb:d4:d2:c5:f0:da:
                    4c:74:93
                Exponent: 65537 (0x10001)
        X509v3 extensions:
            X509v3 Basic Constraints: 
                CA:FALSE
            X509v3 Key Usage: 
                Digital Signature, Key Encipherment
            X509v3 Subject Alternative Name: 
                DNS:localhost
            X509v3 Subject Key Identifier: 
                65:DB:5B:81:D7:64:C3:BF:A4:7B:11:3C:19:D4:C3:C5:28:44:60:1B
            X509v3 Authority Key Identifier: 
                3F:87:19:0A:2D:03:0B:BD:2A:F1:04:90:64:5E:31:7C:1E:5D:93:80
    Signature Algorithm: sha256WithRSAEncryption
    Signature Value:
        65:12:b3:75:37:97:b2:0b:48:a0:06:d3:99:8f:35:4d:83:e8:
        17:5a:9e:8b:da:7d:64:cc:5f:65:ca:5c:89:f3:fa:31:6a:6f:
        a3:0a:30:ff:ac:b4:87:79:a3:51:51:de:5b:fd:d3:2f:52:0c:
        42:b5:bc:85:69:49:0f:14:0f:47:a0:f2:a4:bc:cb:0f:1c:aa:
        f3:af:98:7e:98:58:15:ee:59:63:c4:9e:f9:01:84:74:30:c4:
        93:07:d0:a6:d7:60:e5:07:91:46:38:61:d2:59:b7:3d:a8:7e:
        d6:6d:e1:0a:04:36:f0:7a:75:23:40:74:fe:4e:a3:a4:0c:9e:
        a9:53:23:50:b9:59:77:39:42:c6:17:04:a8:3a:9b:a8:c2:6a:
        c7:56:32:8a:20:fb:19:fb:d2:11:23:d0:03:a4:2c:ff:67:fe:
        f3:1d:47:99:c1:63:ba:2b:26:be:ee:17:32:9e:f4:4f:9d:96:
        bb:2b:af:2c:7a:6c:86:ba:62:c4:d0:6e:f5:d3:a8:a6:eb:65:
        5e:6c:50:6c:f3:e7:60:d3:27:8e:e9:14:bd:e8:ed:27:11:4f:
        e4:c1:f1:89:d4:b1:17:8b:c9:9f:b5:d8:08:b2:6e:30:a2:9a:
        b9:a2:08:a9:ef:ab:80:08:5d:cf:d1:98:31:0f:7a:24:70:f5:
        36:24:1b:d7:12:5c:f5:c8:e7:27:19:a9:a6:bb:90:de:44:c8:
        14:f4:ba:01:a6:d7:05:d2:d5:5b:ea:2d:74:9d:0d:fc:ea:0a:
        6d:54:e7:d5:38:63:a1:72:55:53:09:dc:9d:a1:55:a0:74:02:
        93:d5:b5:02:82:a0:f9:9f:2d:6d:96:2e:26:9c:03:91:a9:96:
        42:e7:ec:ac:2c:59:4f:02:b2:19:3e:2e:43:c2:71:52:dd:64:
        e8:c9:8f:f7:66:0d:b4:19:24:60:17:cd:39:41:ce:e3:f6:59:
        f6:5b:06:6c:bf:44:f7:07:61:09:e0:2f:63:41:54:cf:ec:07:
        7b:dd:b3:7b:00:22:69:3b:ca:2c:c5:46:46:71:36:d4:b8:36:
        50:85:92:11:83:d2:0b:1a:8c:ee:24:23:e5:c8:5a:36:63:33:
        21:70:ee:48:2f:50:bf:58:cd:27:05:c9:77:7c:3a:ab:c2:b4:
        08:a7:7b:10:43:e2:68:d9:b7:64:5c:e8:61:2d:1c:b0:07:26:
        91:bb:68:4c:23:0b:62:ef:d1:68:a9:0a:cd:c8:71:83:48:62:
        f1:d2:a8:ec:a8:b6:ff:75:4c:78:52:c1:e7:e1:06:c2:53:25:
        3d:c5:03:b3:84:2a:cd:56:7b:3a:91:1e:bb:d1:d6:f3:61:0c:
        01:1e:f0:48:0a:69:01:a6
-----BEGIN CERTIFICATE-----
MIIF0jCCA7qgAwIBAgIBETANBgkqhkiG9w0BAQsFADBlMQswCQYDVQQGEwJJVDEQ
MA4GA1UECAwHVHVzY2FueTENMAsGA1UEBwwEUGlzYTEWMBQGA1UECgwNR2FjaGFB
bmRHYW1lczENMAsGA1UECwwERGJDQTEOMAwGA1UEAwwFRGIgQ0EwHhcNMjQxMjA1
MTkxMTI2WhcNMjcxMjA1MTkxMTI2WjCBgTELMAkGA1UEBhMCSVQxEDAOBgNVBAgM
B1R1c2NhbnkxDTALBgNVBAcMBFBpc2ExGjAYBgNVBAoMEWludmVudG9yeUFuZEdh
bWVzMRAwDgYDVQQLDAdEZXZlbG9wMSMwIQYDVQQDDBpzZXJ2aWNlX2ludmVudG9y
eV9kYl9wcm94eTCCAiIwDQYJKoZIhvcNAQEBBQADggIPADCCAgoCggIBAJysDaTs
SBbZ+/PvELku31dKTVUlNNvDUt1SBI30BybOerjtaYAkNbnnnAv36VfmT1QU7UNv
2JZeQoM5Xfgk9y8aVUq8OA5PAvCUeDrP/Rf/Vzx+JC+bo+vY1wkt0OlmiAPjD/9S
T9OZIJiwbDs7jL8wSpHBwMV3zlyILMNogR6VcRtJZA9+CPo6+8BRTQ7Ven7pEcIc
khbey6HFiGp5jxzrra5qVuxis3g/62EtTEZ4nh/M9xrM8e2yf0QBq5tPc1lclX/p
T/v9kMI8wmnV5RAV6alyTw7enJkikiFrZfuCYPqo0mmcMXdMFTTZURSc4IHTvaQc
uE0WDYx5FY1KPIT9pXk5hyFaO9pdWdEpUkKLRcbw7ZLHt3qSjI1V75oFUm0VqX4o
5R/bA2EaUTgyWOE0lnUg60tTq/8I+tK3uDc1DZ5zDC7vvpuNDlx5N/HvlBBwBjIR
nu5a2iFZ7JStBzYmS2YBiJZLF2LqDad4063ubhHtlHNIODfD7/ONOr/y0WBqrLGd
mcU7aRsMQunTgk2vFgtlYqFctahdyGYrxhUywZ2Z0aFueUJkdYMxqkQQGHTluzkG
odYFtuBd69klqBLQi1s1/cuX7HP0vxGbRcn6DfsCkQ3sHUNTjalEZTa4JKW0ReMD
O6LMUcpreRecKOPsw07ps6MF69TSxfDaTHSTAgMBAAGjcDBuMAkGA1UdEwQCMAAw
CwYDVR0PBAQDAgWgMBQGA1UdEQQNMAuCCWxvY2FsaG9zdDAdBgNVHQ4EFgQUZdtb
gddkw7+kexE8GdTDxShEYBswHwYDVR0jBBgwFoAUP4cZCi0DC70q8QSQZF4xfB5d
k4AwDQYJKoZIhvcNAQELBQADggIBAGUSs3U3l7ILSKAG05mPNU2D6BdanovafWTM
X2XKXInz+jFqb6MKMP+stId5o1FR3lv90y9SDEK1vIVpSQ8UD0eg8qS8yw8cqvOv
mH6YWBXuWWPEnvkBhHQwxJMH0KbXYOUHkUY4YdJZtz2oftZt4QoENvB6dSNAdP5O
o6QMnqlTI1C5WXc5QsYXBKg6m6jCasdWMoog+xn70hEj0AOkLP9n/vMdR5nBY7or
Jr7uFzKe9E+dlrsrryx6bIa6YsTQbvXTqKbrZV5sUGzz52DTJ47pFL3o7ScRT+TB
8YnUsReLyZ+12AiybjCimrmiCKnvq4AIXc/RmDEPeiRw9TYkG9cSXPXI5ycZqaa7
kN5EyBT0ugGm1wXS1VvqLXSdDfzqCm1U59U4Y6FyVVMJ3J2hVaB0ApPVtQKCoPmf
LW2WLiacA5GplkLn7KwsWU8Cshk+LkPCcVLdZOjJj/dmDbQZJGAXzTlBzuP2WfZb
Bmy/RPcHYQngL2NBVM/sB3vds3sAImk7yizFRkZxNtS4NlCFkhGD0gsajO4kI+XI
WjZjMyFw7kgvUL9YzScFyXd8OqvCtAinexBD4mjZt2Rc6GEtHLAHJpG7aEwjC2Lv
0WipCs3IcYNIYvHSqOyotv91THhSwefhBsJTJT3FA7OEKs1WezqRHrvR1vNhDAEe
8EgKaQGm
-----END CERTIFICATE-----
