Certificate:
    Data:
        Version: 3 (0x2)
        Serial Number: 21 (0x15)
        Signature Algorithm: sha256WithRSAEncryption
        Issuer: C=IT, ST=Tuscany, L=Pisa, O=GachaAndGames, OU=DbCA, CN=Db CA
        Validity
            Not Before: Dec  5 19:35:01 2024 GMT
            Not After : Dec  5 19:35:01 2027 GMT
        Subject: C=IT, ST=Tuscany, L=Pisa, O=profileAndGames, OU=Develop, CN=service_profile_db_replica
        Subject Public Key Info:
            Public Key Algorithm: rsaEncryption
                Public-Key: (4096 bit)
                Modulus:
                    00:d0:0f:47:78:ed:a5:f4:c0:ea:a0:a9:25:ce:91:
                    74:6c:10:a1:01:2c:8f:29:9d:43:6f:43:7b:65:42:
                    29:ad:f8:12:88:0b:9f:bf:69:c8:43:e0:a7:93:84:
                    41:07:7b:89:53:16:7b:a0:b3:ed:d1:e8:27:11:b4:
                    76:29:3c:c2:63:92:e9:0d:16:cb:3a:07:b3:a4:de:
                    e6:1c:ca:34:dc:81:8f:8d:87:bb:8e:d9:6a:c2:d0:
                    d6:ac:7e:0a:63:fb:4d:01:48:34:f6:d6:b5:69:20:
                    29:b7:ee:0d:37:ef:e6:86:92:88:0a:76:1d:5a:48:
                    bf:5b:22:09:64:1a:03:e3:53:3f:94:ac:df:4a:55:
                    b5:dc:cf:49:a4:fb:16:2f:1f:71:6f:a8:e5:1b:f4:
                    01:4c:b0:8b:33:c3:b1:00:a6:3e:7b:43:50:e4:29:
                    61:25:7a:40:e2:eb:a0:82:f3:26:1d:f9:9c:9e:39:
                    17:e2:59:0f:b6:0c:42:95:8d:2d:3d:d5:b7:52:c8:
                    12:28:82:5f:5e:47:1d:0c:0f:2a:10:26:1d:e5:fd:
                    4f:74:0c:b4:28:ed:a0:60:8a:ff:63:d1:d5:7a:19:
                    b9:81:55:04:6f:5f:f6:18:c7:75:14:46:ca:b2:48:
                    67:1d:34:de:13:80:e9:d8:e6:25:1f:b1:2c:32:1a:
                    69:10:db:be:3c:39:6e:35:b6:fa:37:49:02:10:28:
                    8d:90:f4:47:40:40:20:00:25:e2:e4:9a:0b:b2:13:
                    bc:be:0c:96:01:3c:14:bd:7b:9a:7f:76:22:f3:5f:
                    2e:ef:1c:88:04:48:0f:ab:3c:56:18:a7:f2:a1:fa:
                    00:04:4b:64:5a:7d:8e:43:66:76:af:c4:29:54:dc:
                    b1:af:92:31:ec:1c:79:8b:52:05:c7:9d:83:2e:b6:
                    29:e7:c5:ba:2b:32:c1:ac:c8:b7:20:14:0e:43:86:
                    70:08:77:7d:22:0b:91:81:79:d8:30:3b:a2:04:9f:
                    c8:db:eb:0c:36:1f:1b:91:ab:2a:dd:0b:88:67:af:
                    2e:12:aa:21:49:5b:58:26:11:54:03:d6:17:9d:96:
                    36:a5:23:17:8e:69:b2:4d:9a:15:3f:0b:34:0e:13:
                    0c:9e:28:ec:54:17:d6:8f:5f:e2:e8:db:8c:0e:7d:
                    a4:fb:ca:34:43:95:50:7c:3f:28:e9:02:20:fa:73:
                    f9:5c:1c:41:77:02:76:c8:45:eb:bb:ba:f0:85:69:
                    57:0e:17:e5:f4:a2:8a:3d:2f:c2:71:15:51:83:f0:
                    d7:c9:46:7c:21:0b:b0:96:8a:c1:91:37:64:36:d8:
                    0f:a0:c4:37:5f:64:97:8d:e8:36:25:7e:13:a1:07:
                    54:9f:17
                Exponent: 65537 (0x10001)
        X509v3 extensions:
            X509v3 Basic Constraints: 
                CA:FALSE
            X509v3 Key Usage: 
                Digital Signature, Key Encipherment
            X509v3 Subject Alternative Name: 
                DNS:localhost
            X509v3 Subject Key Identifier: 
                C4:D7:93:1F:67:6D:0F:DA:A7:09:A8:9D:75:AF:28:C7:F5:8B:08:1D
            X509v3 Authority Key Identifier: 
                3F:87:19:0A:2D:03:0B:BD:2A:F1:04:90:64:5E:31:7C:1E:5D:93:80
    Signature Algorithm: sha256WithRSAEncryption
    Signature Value:
        6f:fc:21:c6:9f:cb:8b:a1:52:50:58:6a:87:f3:f5:a2:fa:8b:
        80:d8:b8:8b:4a:76:bf:b1:2d:f1:ee:ec:b2:a3:a6:e9:79:8b:
        47:9b:a2:1c:ac:9f:3f:73:ec:9b:6b:55:69:5e:40:c6:97:6d:
        88:8a:d8:9d:f4:e5:cb:47:c9:9f:ce:ad:b5:8b:84:f5:13:7b:
        83:3a:c2:0e:1e:75:cb:d0:c4:2c:09:68:b1:d7:25:6b:3c:0d:
        84:cc:35:fc:e6:bb:3c:98:1d:24:34:0b:2d:84:57:1d:43:c3:
        f6:c5:9a:f3:63:e0:7c:0c:1f:70:59:b4:17:a8:bb:82:1e:4b:
        0f:33:36:23:58:46:e0:e0:b2:89:b6:7a:35:ab:fe:8e:0a:f6:
        d2:94:c4:9c:fa:e6:65:ef:18:c3:ec:7d:99:06:ad:81:64:9f:
        0b:a3:b8:b1:db:19:ac:e3:d0:aa:4c:58:5e:55:8e:2f:7d:63:
        b7:44:74:dc:9b:c5:b4:68:22:0a:57:2c:bd:3c:e2:37:c8:d7:
        b0:36:21:62:c0:9c:df:11:eb:25:1d:5d:b1:34:d2:a9:16:0c:
        b6:ee:27:10:7d:84:73:ed:27:81:13:02:64:64:2c:4d:01:36:
        bd:69:30:6d:d3:68:ef:c0:db:c1:11:50:39:ff:8c:6f:48:aa:
        8e:7b:65:55:c5:44:dd:b0:b9:e9:a8:31:09:03:ea:56:6a:3a:
        fd:a5:b1:00:0d:58:af:f0:87:d3:88:57:76:b3:39:59:8e:82:
        a4:8a:e4:12:5c:fb:3b:fb:f5:34:5c:57:f4:45:67:e4:51:be:
        b4:98:c2:62:16:60:fc:ec:46:c4:23:df:08:9e:26:be:62:a7:
        49:75:f9:81:43:53:bc:a8:0a:89:ae:f6:aa:59:31:51:b1:68:
        3a:30:6b:3a:8f:93:80:26:aa:78:ec:c7:ea:15:be:d5:7c:82:
        c7:8a:a4:a4:7e:c6:e6:6c:14:4f:ef:68:c2:5e:b6:b7:be:42:
        65:c8:ed:e4:da:70:ea:fa:13:5e:09:a6:5a:e8:5c:96:6e:2e:
        9f:d3:5d:00:7d:82:b7:bf:c8:b0:7d:5d:e4:3f:2d:ab:c7:09:
        27:92:f6:fa:26:cb:cf:38:02:45:93:15:28:65:04:5d:9f:50:
        8b:74:8d:83:35:8d:09:b2:d1:ab:5d:79:00:69:ad:43:c3:e6:
        af:e1:32:d9:ab:0a:07:2c:0a:29:ce:ad:e0:34:cb:aa:73:3c:
        0c:35:b5:ed:89:3e:11:0e:0f:70:5b:05:b7:31:89:b1:14:7f:
        30:4b:70:db:1d:df:08:29:0f:97:12:6c:b9:f5:6d:43:13:22:
        d8:e5:f4:46:65:f0:a7:aa
-----BEGIN CERTIFICATE-----
MIIFzzCCA7egAwIBAgIBFTANBgkqhkiG9w0BAQsFADBlMQswCQYDVQQGEwJJVDEQ
MA4GA1UECAwHVHVzY2FueTENMAsGA1UEBwwEUGlzYTEWMBQGA1UECgwNR2FjaGFB
bmRHYW1lczENMAsGA1UECwwERGJDQTEOMAwGA1UEAwwFRGIgQ0EwHhcNMjQxMjA1
MTkzNTAxWhcNMjcxMjA1MTkzNTAxWjB/MQswCQYDVQQGEwJJVDEQMA4GA1UECAwH
VHVzY2FueTENMAsGA1UEBwwEUGlzYTEYMBYGA1UECgwPcHJvZmlsZUFuZEdhbWVz
MRAwDgYDVQQLDAdEZXZlbG9wMSMwIQYDVQQDDBpzZXJ2aWNlX3Byb2ZpbGVfZGJf
cmVwbGljYTCCAiIwDQYJKoZIhvcNAQEBBQADggIPADCCAgoCggIBANAPR3jtpfTA
6qCpJc6RdGwQoQEsjymdQ29De2VCKa34EogLn79pyEPgp5OEQQd7iVMWe6Cz7dHo
JxG0dik8wmOS6Q0WyzoHs6Te5hzKNNyBj42Hu47ZasLQ1qx+CmP7TQFINPbWtWkg
KbfuDTfv5oaSiAp2HVpIv1siCWQaA+NTP5Ss30pVtdzPSaT7Fi8fcW+o5Rv0AUyw
izPDsQCmPntDUOQpYSV6QOLroILzJh35nJ45F+JZD7YMQpWNLT3Vt1LIEiiCX15H
HQwPKhAmHeX9T3QMtCjtoGCK/2PR1XoZuYFVBG9f9hjHdRRGyrJIZx003hOA6djm
JR+xLDIaaRDbvjw5bjW2+jdJAhAojZD0R0BAIAAl4uSaC7ITvL4MlgE8FL17mn92
IvNfLu8ciARID6s8Vhin8qH6AARLZFp9jkNmdq/EKVTcsa+SMewceYtSBcedgy62
KefFuisywazItyAUDkOGcAh3fSILkYF52DA7ogSfyNvrDDYfG5GrKt0LiGevLhKq
IUlbWCYRVAPWF52WNqUjF45psk2aFT8LNA4TDJ4o7FQX1o9f4ujbjA59pPvKNEOV
UHw/KOkCIPpz+VwcQXcCdshF67u68IVpVw4X5fSiij0vwnEVUYPw18lGfCELsJaK
wZE3ZDbYD6DEN19kl43oNiV+E6EHVJ8XAgMBAAGjcDBuMAkGA1UdEwQCMAAwCwYD
VR0PBAQDAgWgMBQGA1UdEQQNMAuCCWxvY2FsaG9zdDAdBgNVHQ4EFgQUxNeTH2dt
D9qnCaidda8ox/WLCB0wHwYDVR0jBBgwFoAUP4cZCi0DC70q8QSQZF4xfB5dk4Aw
DQYJKoZIhvcNAQELBQADggIBAG/8Icafy4uhUlBYaofz9aL6i4DYuItKdr+xLfHu
7LKjpul5i0ebohysnz9z7JtrVWleQMaXbYiK2J305ctHyZ/OrbWLhPUTe4M6wg4e
dcvQxCwJaLHXJWs8DYTMNfzmuzyYHSQ0Cy2EVx1Dw/bFmvNj4HwMH3BZtBeou4Ie
Sw8zNiNYRuDgsom2ejWr/o4K9tKUxJz65mXvGMPsfZkGrYFknwujuLHbGazj0KpM
WF5Vji99Y7dEdNybxbRoIgpXLL084jfI17A2IWLAnN8R6yUdXbE00qkWDLbuJxB9
hHPtJ4ETAmRkLE0BNr1pMG3TaO/A28ERUDn/jG9Iqo57ZVXFRN2wuemoMQkD6lZq
Ov2lsQANWK/wh9OIV3azOVmOgqSK5BJc+zv79TRcV/RFZ+RRvrSYwmIWYPzsRsQj
3wieJr5ip0l1+YFDU7yoComu9qpZMVGxaDowazqPk4Amqnjsx+oVvtV8gseKpKR+
xuZsFE/vaMJetre+QmXI7eTacOr6E14JplroXJZuLp/TXQB9gre/yLB9XeQ/LavH
CSeS9vomy884AkWTFShlBF2fUIt0jYM1jQmy0atdeQBprUPD5q/hMtmrCgcsCinO
reA0y6pzPAw1te2JPhEOD3BbBbcxibEUfzBLcNsd3wgpD5cSbLn1bUMTItjl9EZl
8Keq
-----END CERTIFICATE-----
