Certificate:
    Data:
        Version: 3 (0x2)
        Serial Number: 2 (0x2)
        Signature Algorithm: sha256WithRSAEncryption
        Issuer: C=IT, ST=Tuscany, L=Pisa, O=GachaAndGames, OU=DbCA, CN=Db CA
        Validity
            Not Before: Dec  4 17:26:40 2024 GMT
            Not After : Dec  4 17:26:40 2027 GMT
        Subject: C=IT, ST=Tuscany, L=Pisa, O=GachaAndGames, OU=Develop, CN=service_auth_db_primary
        Subject Public Key Info:
            Public Key Algorithm: rsaEncryption
                Public-Key: (4096 bit)
                Modulus:
                    00:be:9c:dd:77:9d:66:b0:d4:19:45:ec:fe:37:ab:
                    89:7e:ec:5c:70:7a:56:4b:fe:b0:b9:90:90:12:c2:
                    f0:ac:0b:48:67:99:ed:3d:4f:da:ca:02:5c:aa:45:
                    59:ea:92:c8:cd:46:cd:4b:3f:29:c2:a6:52:8d:88:
                    b5:6a:5b:85:96:ed:a8:ec:60:18:9c:63:6f:6d:5a:
                    af:41:11:71:58:81:09:c3:8b:66:cd:29:f7:4e:34:
                    61:93:b1:9e:b2:73:91:01:4c:17:96:5c:b3:20:57:
                    46:b8:e8:5c:b3:d6:80:14:41:18:f7:18:05:9b:43:
                    dc:27:23:e8:c4:7e:a6:ca:4f:fa:d8:d3:ec:1f:09:
                    ec:39:ea:1b:97:7f:45:2d:29:68:b6:7e:0b:31:3d:
                    9a:44:f9:dd:b1:e3:d0:da:e4:f6:94:88:73:9e:e7:
                    cb:e5:ae:45:3e:28:22:50:a9:77:ab:76:b7:35:5d:
                    89:ab:2d:5f:f0:65:a9:ed:5e:b1:2b:94:9d:b4:2b:
                    b7:7f:b1:af:0d:23:7c:66:eb:52:f3:78:78:1f:6d:
                    14:9f:e5:f7:11:f5:82:26:ad:e0:6d:5b:34:7d:fc:
                    cc:9e:a9:8b:c0:e9:d6:85:b0:43:c5:66:de:f8:5e:
                    e8:c3:1c:89:a0:6d:7f:59:95:d9:2d:c3:2d:2c:22:
                    6f:97:7b:94:de:89:7b:fc:a6:67:7c:28:48:9c:90:
                    0b:cb:64:d2:3c:3e:10:b0:48:76:b3:d4:f3:16:68:
                    dd:4c:3e:ef:9f:5c:bb:5a:86:46:0f:1a:be:43:f6:
                    be:06:e9:dc:0e:38:46:77:33:3c:fc:1f:01:52:16:
                    72:cc:bf:97:eb:c6:de:24:61:83:88:76:e1:2d:87:
                    f4:bc:30:d6:fe:15:b4:e4:d1:cf:17:96:5a:61:d8:
                    f9:d6:84:6b:d6:3e:51:d1:fc:47:d0:12:a7:76:bc:
                    cf:a0:0b:59:09:40:23:7d:db:ae:98:c4:a3:6e:b2:
                    06:38:7c:84:6e:f8:aa:67:3e:0b:43:8d:16:8a:3f:
                    25:f8:a0:ae:0a:38:f7:3d:92:79:e7:17:3f:b7:49:
                    3a:46:83:89:99:33:18:a5:64:09:46:f4:b3:84:5b:
                    70:2b:26:97:3d:99:7b:10:78:04:04:bb:e8:8d:37:
                    4c:c5:72:7c:fe:1e:1a:db:2b:3a:b6:4c:1d:51:e2:
                    07:f5:74:e9:91:51:12:b7:40:0b:ce:69:65:80:16:
                    ff:84:8c:b3:17:46:0b:40:d2:75:3b:aa:88:5b:c9:
                    9a:06:4b:88:dc:f0:fa:de:51:dc:95:a0:9c:37:51:
                    26:11:90:8b:9c:1c:7d:8c:d7:2f:3c:66:c4:56:77:
                    ae:9a:ef
                Exponent: 65537 (0x10001)
        X509v3 extensions:
            X509v3 Basic Constraints: 
                CA:FALSE
            X509v3 Key Usage: 
                Digital Signature, Key Encipherment
            X509v3 Subject Alternative Name: 
                DNS:localhost
            X509v3 Subject Key Identifier: 
                A7:2C:47:2B:C7:CB:A5:B4:0C:C5:A7:89:EE:CD:3B:41:9C:89:75:8E
            X509v3 Authority Key Identifier: 
                3F:87:19:0A:2D:03:0B:BD:2A:F1:04:90:64:5E:31:7C:1E:5D:93:80
    Signature Algorithm: sha256WithRSAEncryption
    Signature Value:
        42:40:7e:85:81:79:5e:f0:8f:8a:f0:94:6c:24:a5:dd:93:3e:
        9d:b9:b6:d3:33:a2:7f:1d:4a:11:d1:3e:ae:91:20:82:b9:23:
        7b:ba:18:63:7a:fa:07:8e:f2:f1:09:9d:4f:5b:eb:99:af:22:
        e0:a4:ab:04:51:af:b8:3e:f2:dc:0a:3f:22:48:b2:93:4b:d7:
        3e:39:c0:d7:4f:02:e8:65:b8:6a:b9:13:26:b4:4b:b4:fe:fa:
        44:49:cd:0c:99:80:8a:01:fe:e3:76:03:e2:5e:da:70:5d:b0:
        61:87:85:ef:d9:8b:d8:c2:29:61:f8:11:75:85:55:89:bc:0a:
        04:7a:80:da:6e:ed:5c:98:07:20:bb:8e:02:c7:5c:36:12:68:
        1d:ab:9b:47:af:58:d3:4a:5f:91:dc:6f:ad:3e:da:60:fa:be:
        d9:26:b4:3d:68:cb:db:41:7b:69:dd:ef:bf:a2:b2:3c:56:c7:
        55:1f:4d:7b:82:b5:38:b7:36:af:c7:66:b5:67:ea:57:46:09:
        98:f2:45:ef:46:21:6c:6f:41:38:9f:77:79:f3:5c:6e:15:9f:
        b3:5a:df:66:21:e3:52:f5:98:44:a4:a6:fc:22:25:0d:4a:13:
        82:1e:83:ad:7e:26:4e:13:a2:35:0a:4c:3a:4f:3f:03:c4:80:
        28:a7:48:d8:22:f9:59:67:c4:97:49:7c:aa:df:9b:0a:86:1d:
        37:bf:f0:e1:10:ec:9d:97:97:9d:b5:3c:30:e7:6d:02:f0:10:
        3b:25:6f:1c:69:53:a4:0c:82:3d:00:55:d3:f3:cd:f0:e8:57:
        6a:75:fd:5e:da:73:a8:75:e4:03:42:64:17:15:17:7d:d8:1b:
        2b:5e:d3:c5:73:ef:d6:bd:db:96:b5:48:85:9d:19:eb:9b:8f:
        58:8c:e7:44:66:b6:70:e1:c2:5b:d2:2a:3c:b7:63:78:7e:55:
        cf:20:eb:d0:cb:6e:b6:03:2a:bc:90:e0:01:3c:c4:90:09:ff:
        b8:7a:19:ad:3c:36:95:3f:45:ed:7c:a0:58:4f:78:0d:ed:bf:
        88:d3:fe:02:4a:ed:b1:e1:48:33:5f:49:f2:51:bd:e3:84:d2:
        3b:cc:c8:ed:fe:59:9c:3c:4b:92:f4:dd:33:25:fc:56:c7:25:
        a2:98:de:57:90:33:33:1e:f8:0e:46:8e:10:f3:b6:9d:b1:f7:
        9d:df:3d:21:44:85:07:8e:62:cb:b3:7f:5c:11:73:1d:33:5c:
        33:7b:ab:3c:a5:45:a9:90:b0:a6:01:39:24:e7:fb:fa:c4:9e:
        6c:bb:1c:59:97:08:7f:51:3c:5a:69:a9:ba:b8:f9:f7:c0:4f:
        aa:e8:3f:72:3b:8c:76:b6
-----BEGIN CERTIFICATE-----
MIIFyjCCA7KgAwIBAgIBAjANBgkqhkiG9w0BAQsFADBlMQswCQYDVQQGEwJJVDEQ
MA4GA1UECAwHVHVzY2FueTENMAsGA1UEBwwEUGlzYTEWMBQGA1UECgwNR2FjaGFB
bmRHYW1lczENMAsGA1UECwwERGJDQTEOMAwGA1UEAwwFRGIgQ0EwHhcNMjQxMjA0
MTcyNjQwWhcNMjcxMjA0MTcyNjQwWjB6MQswCQYDVQQGEwJJVDEQMA4GA1UECAwH
VHVzY2FueTENMAsGA1UEBwwEUGlzYTEWMBQGA1UECgwNR2FjaGFBbmRHYW1lczEQ
MA4GA1UECwwHRGV2ZWxvcDEgMB4GA1UEAwwXc2VydmljZV9hdXRoX2RiX3ByaW1h
cnkwggIiMA0GCSqGSIb3DQEBAQUAA4ICDwAwggIKAoICAQC+nN13nWaw1BlF7P43
q4l+7FxwelZL/rC5kJASwvCsC0hnme09T9rKAlyqRVnqksjNRs1LPynCplKNiLVq
W4WW7ajsYBicY29tWq9BEXFYgQnDi2bNKfdONGGTsZ6yc5EBTBeWXLMgV0a46Fyz
1oAUQRj3GAWbQ9wnI+jEfqbKT/rY0+wfCew56huXf0UtKWi2fgsxPZpE+d2x49Da
5PaUiHOe58vlrkU+KCJQqXerdrc1XYmrLV/wZantXrErlJ20K7d/sa8NI3xm61Lz
eHgfbRSf5fcR9YImreBtWzR9/MyeqYvA6daFsEPFZt74XujDHImgbX9Zldktwy0s
Im+Xe5TeiXv8pmd8KEickAvLZNI8PhCwSHaz1PMWaN1MPu+fXLtahkYPGr5D9r4G
6dwOOEZ3Mzz8HwFSFnLMv5frxt4kYYOIduEth/S8MNb+FbTk0c8Xllph2PnWhGvW
PlHR/EfQEqd2vM+gC1kJQCN9266YxKNusgY4fIRu+KpnPgtDjRaKPyX4oK4KOPc9
knnnFz+3STpGg4mZMxilZAlG9LOEW3ArJpc9mXsQeAQEu+iNN0zFcnz+HhrbKzq2
TB1R4gf1dOmRURK3QAvOaWWAFv+EjLMXRgtA0nU7qohbyZoGS4jc8PreUdyVoJw3
USYRkIucHH2M1y88ZsRWd66a7wIDAQABo3AwbjAJBgNVHRMEAjAAMAsGA1UdDwQE
AwIFoDAUBgNVHREEDTALgglsb2NhbGhvc3QwHQYDVR0OBBYEFKcsRyvHy6W0DMWn
ie7NO0GciXWOMB8GA1UdIwQYMBaAFD+HGQotAwu9KvEEkGReMXweXZOAMA0GCSqG
SIb3DQEBCwUAA4ICAQBCQH6FgXle8I+K8JRsJKXdkz6dubbTM6J/HUoR0T6ukSCC
uSN7uhhjevoHjvLxCZ1PW+uZryLgpKsEUa+4PvLcCj8iSLKTS9c+OcDXTwLoZbhq
uRMmtEu0/vpESc0MmYCKAf7jdgPiXtpwXbBhh4Xv2YvYwilh+BF1hVWJvAoEeoDa
bu1cmAcgu44Cx1w2Emgdq5tHr1jTSl+R3G+tPtpg+r7ZJrQ9aMvbQXtp3e+/orI8
VsdVH017grU4tzavx2a1Z+pXRgmY8kXvRiFsb0E4n3d581xuFZ+zWt9mIeNS9ZhE
pKb8IiUNShOCHoOtfiZOE6I1Ckw6Tz8DxIAop0jYIvlZZ8SXSXyq35sKhh03v/Dh
EOydl5edtTww520C8BA7JW8caVOkDII9AFXT883w6Fdqdf1e2nOodeQDQmQXFRd9
2BsrXtPFc+/WvduWtUiFnRnrm49YjOdEZrZw4cJb0io8t2N4flXPIOvQy262Ayq8
kOABPMSQCf+4ehmtPDaVP0XtfKBYT3gN7b+I0/4CSu2x4UgzX0nyUb3jhNI7zMjt
/lmcPEuS9N0zJfxWxyWimN5XkDMzHvgORo4Q87adsfed3z0hRIUHjmLLs39cEXMd
M1wze6s8pUWpkLCmATkk5/v6xJ5suxxZlwh/UTxaaam6uPn3wE+q6D9yO4x2tg==
-----END CERTIFICATE-----
