Certificate:
    Data:
        Version: 3 (0x2)
        Serial Number: 1 (0x1)
        Signature Algorithm: sha256WithRSAEncryption
        Issuer: C=IT, ST=Tuscany, L=Pisa, O=GachaAndGames, OU=CdnCA, CN=Cdn CA
        Validity
            Not Before: Dec  4 16:40:49 2024 GMT
            Not After : Dec  4 16:40:49 2027 GMT
        Subject: C=IT, ST=Tuscany, L=Pisa, O=GachaAndGames, OU=Develop, CN=cdn
        Subject Public Key Info:
            Public Key Algorithm: rsaEncryption
                Public-Key: (4096 bit)
                Modulus:
                    00:c6:65:c6:9a:4d:a0:0c:98:83:82:6c:00:9b:43:
                    45:89:5c:75:a2:ae:c1:fa:0f:e8:c6:64:1f:f8:fc:
                    9f:53:eb:2c:e8:48:94:fb:2f:5d:47:b9:1f:cf:3f:
                    1c:a5:99:ba:78:3c:69:0c:60:37:81:88:7e:85:71:
                    5b:5a:35:d5:89:e2:10:47:d7:a4:0b:e7:03:c9:5a:
                    f1:ad:99:be:c4:b3:40:dd:36:33:16:a9:60:8e:1c:
                    bf:fb:20:d7:71:9d:25:49:70:f3:c7:e0:99:5b:36:
                    d7:a3:0a:aa:97:4b:30:c9:d1:36:9a:9a:14:42:2b:
                    59:07:c9:c3:b9:65:fe:6b:ae:a2:ba:58:97:a3:39:
                    e0:6d:e4:45:de:b8:78:42:f4:a4:02:53:5f:02:ba:
                    ee:fb:03:ae:0f:27:34:ae:12:c2:47:51:d0:5d:57:
                    6a:97:ee:f7:77:d7:97:f2:95:36:e3:60:23:5e:f3:
                    7d:72:c3:26:21:29:0d:c2:39:88:14:c7:0d:78:8f:
                    8c:88:28:7c:83:c1:c8:71:ff:32:62:5e:f8:3b:4d:
                    f8:c8:0c:86:29:ac:5a:ec:19:a3:d3:c6:f7:51:41:
                    6b:2f:59:2d:e0:a1:b1:49:d7:f0:4d:03:94:cf:29:
                    cc:ca:ab:68:94:ba:0e:fa:0a:6c:96:ad:b1:54:fe:
                    0c:5a:00:81:38:38:e6:a4:7f:44:ed:36:08:8f:8f:
                    ce:58:f8:5d:17:f6:48:04:fc:70:16:95:08:90:28:
                    3d:16:8a:62:c4:d8:c4:ce:5b:1e:c0:ad:75:06:7d:
                    74:c0:be:84:78:50:f0:72:0d:53:ee:10:42:a0:b2:
                    80:17:33:9d:e1:46:2f:0f:b8:24:e0:02:31:5f:37:
                    ca:42:53:51:43:9f:c4:6d:a3:01:32:76:d4:8b:03:
                    35:0f:45:24:71:a3:0a:9f:8a:5c:6a:7c:6a:18:71:
                    83:04:fb:e3:d0:ca:ee:72:1f:fc:26:1a:ed:86:27:
                    1a:50:9c:ee:4e:ed:b5:c8:25:ce:fc:27:ef:ca:f1:
                    62:43:e0:2f:8f:9b:bd:18:83:ed:be:89:3c:23:11:
                    9f:ce:23:fe:aa:41:b7:94:07:3e:34:37:01:0f:81:
                    fe:37:43:f2:12:a5:41:d2:34:83:57:f7:da:55:5d:
                    4c:36:b6:2c:60:42:f8:07:c0:4e:d0:c9:c0:bf:f1:
                    2e:f3:a0:5d:37:7b:33:0f:28:aa:a9:f7:75:90:e0:
                    95:b2:56:7b:5d:00:00:d3:4d:70:36:be:e5:36:1c:
                    93:bd:86:9e:9f:3c:ea:50:69:2a:c9:16:1f:09:8c:
                    54:40:84:e0:05:62:c7:c4:8a:d9:07:0a:21:28:bd:
                    ff:37:5d
                Exponent: 65537 (0x10001)
        X509v3 extensions:
            X509v3 Basic Constraints: 
                CA:FALSE
            X509v3 Key Usage: 
                Digital Signature, Key Encipherment
            X509v3 Subject Alternative Name: 
                DNS:localhost
            X509v3 Subject Key Identifier: 
                C8:6E:D2:2A:03:0A:9B:5B:56:D9:B1:36:71:EE:91:4E:3A:21:48:E3
            X509v3 Authority Key Identifier: 
                F6:E0:F1:02:9C:E3:26:96:F7:BC:ED:8D:80:6F:8B:59:EF:F3:F3:A5
    Signature Algorithm: sha256WithRSAEncryption
    Signature Value:
        94:e8:66:d1:de:a1:e9:a6:92:20:df:98:f4:b6:39:49:52:59:
        02:15:c6:5d:28:d2:8b:b4:9f:56:41:82:7a:b2:0d:4d:d6:26:
        6a:cd:32:97:a3:08:6a:10:83:7e:b9:ef:5f:7a:df:7a:6c:08:
        ee:e1:66:e8:19:75:f8:8f:a4:61:41:2a:92:05:19:6f:6b:be:
        8c:34:9e:f1:4f:a0:3c:5b:c1:aa:66:6a:84:04:5a:83:b0:a6:
        3b:5b:07:9c:fb:ff:ca:61:5f:d2:b2:b6:67:e0:45:5f:a2:f1:
        d1:e4:b7:07:20:61:ac:ac:ae:3c:6c:30:40:a4:8e:23:77:cb:
        d5:79:06:9b:f6:d4:42:eb:a3:55:8a:49:fa:6c:fe:2d:00:40:
        be:54:57:5e:09:0a:da:e0:d3:60:dd:61:50:99:4f:1b:b3:0c:
        3b:f8:08:10:b3:10:56:70:56:53:4d:08:d3:7f:49:13:57:08:
        44:f6:40:4b:88:af:c9:0f:af:4b:d5:ed:51:1c:b3:ee:0b:57:
        b0:87:c7:e5:88:cb:b0:66:4f:d4:f2:d4:6c:51:ea:00:cc:f7:
        52:c3:b8:59:fd:63:a4:a2:2a:5c:df:dc:cc:2f:f4:7e:1c:05:
        04:ea:a2:30:b8:e8:53:71:6c:14:a5:78:1d:61:a2:ce:92:68:
        26:bf:02:69:21:7d:73:37:5c:03:c5:4e:c9:da:bd:12:24:6c:
        57:2b:d0:5a:35:51:ca:93:37:6a:86:16:74:1f:43:37:d7:d2:
        02:d4:c8:70:4c:6e:f1:27:27:9b:73:07:95:6f:b2:83:19:78:
        59:2d:61:b6:c5:3b:b6:b6:af:08:14:bb:7e:8f:11:ee:6b:50:
        2b:85:ca:77:2c:76:0a:03:60:0b:25:c2:ce:98:a9:47:c5:40:
        eb:e3:44:56:a0:ba:2a:b0:6f:1f:a7:17:2a:dd:68:4e:74:4f:
        6d:b2:0e:0e:52:81:5f:4d:d9:39:79:d4:25:7f:38:a0:db:86:
        e7:78:e0:b5:a0:ae:df:ff:5d:9b:c4:f1:b0:84:d8:b3:9e:1f:
        6b:e1:f4:67:6b:fe:10:c2:29:49:44:97:99:43:a9:73:2b:45:
        85:17:0f:31:d9:8e:3a:bc:f8:7e:ef:1e:d5:54:95:02:0b:e5:
        33:45:8f:56:0b:8e:ed:d4:8a:bf:18:e0:00:21:dc:4b:cb:4a:
        e0:5e:0b:d9:27:72:b2:76:3e:4a:f8:ac:6f:91:46:b4:42:f4:
        ff:c6:ac:6c:b5:a6:e9:9f:12:5a:c0:90:70:3c:b9:b6:56:12:
        c0:ce:c1:ea:f6:d6:bb:4e:f8:10:20:a6:1e:42:cf:92:e9:78:
        33:58:3e:67:13:64:b4:e9
-----BEGIN CERTIFICATE-----
MIIFuDCCA6CgAwIBAgIBATANBgkqhkiG9w0BAQsFADBnMQswCQYDVQQGEwJJVDEQ
MA4GA1UECAwHVHVzY2FueTENMAsGA1UEBwwEUGlzYTEWMBQGA1UECgwNR2FjaGFB
bmRHYW1lczEOMAwGA1UECwwFQ2RuQ0ExDzANBgNVBAMMBkNkbiBDQTAeFw0yNDEy
MDQxNjQwNDlaFw0yNzEyMDQxNjQwNDlaMGYxCzAJBgNVBAYTAklUMRAwDgYDVQQI
DAdUdXNjYW55MQ0wCwYDVQQHDARQaXNhMRYwFAYDVQQKDA1HYWNoYUFuZEdhbWVz
MRAwDgYDVQQLDAdEZXZlbG9wMQwwCgYDVQQDDANjZG4wggIiMA0GCSqGSIb3DQEB
AQUAA4ICDwAwggIKAoICAQDGZcaaTaAMmIOCbACbQ0WJXHWirsH6D+jGZB/4/J9T
6yzoSJT7L11HuR/PPxylmbp4PGkMYDeBiH6FcVtaNdWJ4hBH16QL5wPJWvGtmb7E
s0DdNjMWqWCOHL/7INdxnSVJcPPH4JlbNtejCqqXSzDJ0TaamhRCK1kHycO5Zf5r
rqK6WJejOeBt5EXeuHhC9KQCU18Cuu77A64PJzSuEsJHUdBdV2qX7vd315fylTbj
YCNe831ywyYhKQ3COYgUxw14j4yIKHyDwchx/zJiXvg7TfjIDIYprFrsGaPTxvdR
QWsvWS3gobFJ1/BNA5TPKczKq2iUug76CmyWrbFU/gxaAIE4OOakf0TtNgiPj85Y
+F0X9kgE/HAWlQiQKD0WimLE2MTOWx7ArXUGfXTAvoR4UPByDVPuEEKgsoAXM53h
Ri8PuCTgAjFfN8pCU1FDn8RtowEydtSLAzUPRSRxowqfilxqfGoYcYME++PQyu5y
H/wmGu2GJxpQnO5O7bXIJc78J+/K8WJD4C+Pm70Yg+2+iTwjEZ/OI/6qQbeUBz40
NwEPgf43Q/ISpUHSNINX99pVXUw2tixgQvgHwE7QycC/8S7zoF03ezMPKKqp93WQ
4JWyVntdAADTTXA2vuU2HJO9hp6fPOpQaSrJFh8JjFRAhOAFYsfEitkHCiEovf83
XQIDAQABo3AwbjAJBgNVHRMEAjAAMAsGA1UdDwQEAwIFoDAUBgNVHREEDTALggls
b2NhbGhvc3QwHQYDVR0OBBYEFMhu0ioDCptbVtmxNnHukU46IUjjMB8GA1UdIwQY
MBaAFPbg8QKc4yaW97ztjYBvi1nv8/OlMA0GCSqGSIb3DQEBCwUAA4ICAQCU6GbR
3qHpppIg35j0tjlJUlkCFcZdKNKLtJ9WQYJ6sg1N1iZqzTKXowhqEIN+ue9fet96
bAju4WboGXX4j6RhQSqSBRlva76MNJ7xT6A8W8GqZmqEBFqDsKY7Wwec+//KYV/S
srZn4EVfovHR5LcHIGGsrK48bDBApI4jd8vVeQab9tRC66NVikn6bP4tAEC+VFde
CQra4NNg3WFQmU8bsww7+AgQsxBWcFZTTQjTf0kTVwhE9kBLiK/JD69L1e1RHLPu
C1ewh8fliMuwZk/U8tRsUeoAzPdSw7hZ/WOkoipc39zML/R+HAUE6qIwuOhTcWwU
pXgdYaLOkmgmvwJpIX1zN1wDxU7J2r0SJGxXK9BaNVHKkzdqhhZ0H0M319IC1Mhw
TG7xJyebcweVb7KDGXhZLWG2xTu2tq8IFLt+jxHua1Arhcp3LHYKA2ALJcLOmKlH
xUDr40RWoLoqsG8fpxcq3WhOdE9tsg4OUoFfTdk5edQlfzig24bneOC1oK7f/12b
xPGwhNiznh9r4fRna/4QwilJRJeZQ6lzK0WFFw8x2Y46vPh+7x7VVJUCC+UzRY9W
C47t1Iq/GOAAIdxLy0rgXgvZJ3Kydj5K+KxvkUa0QvT/xqxstabpnxJawJBwPLm2
VhLAzsHq9ta7TvgQIKYeQs+S6XgzWD5nE2S06Q==
-----END CERTIFICATE-----
