Certificate:
    Data:
        Version: 3 (0x2)
        Serial Number: 2 (0x2)
        Signature Algorithm: sha256WithRSAEncryption
        Issuer: C=IT, ST=Tuscany, L=Pisa, O=GachaAndGames, OU=ServiceCA, CN=Service CA
        Validity
            Not Before: Dec  5 11:20:00 2024 GMT
            Not After : Dec  5 11:20:00 2027 GMT
        Subject: C=IT, ST=Tuscany, L=Pisa, O=GachaAndGames, OU=Develop, CN=service_admin
        Subject Public Key Info:
            Public Key Algorithm: rsaEncryption
                Public-Key: (4096 bit)
                Modulus:
                    00:9a:99:18:13:a8:8e:4d:e2:47:1f:eb:3e:6b:43:
                    71:35:3e:29:6c:b5:26:3e:46:20:e2:6b:16:33:27:
                    34:b9:57:3c:5d:55:53:b7:f1:26:94:cd:84:e6:a7:
                    b0:5f:47:ee:d2:28:b7:43:94:4e:f9:5f:3f:c0:64:
                    e7:51:e7:43:b2:b6:48:70:d8:11:61:e9:59:0a:ca:
                    37:c4:76:05:f8:d3:c8:63:20:d9:79:57:e7:f3:44:
                    d7:8d:e6:ac:64:4b:c8:06:5b:3a:2a:f7:64:a2:48:
                    63:e9:13:28:21:79:80:bc:65:d3:a8:92:1e:a2:97:
                    17:47:a1:36:87:9e:a3:5b:c0:13:f2:91:f3:15:47:
                    e9:aa:31:3c:d7:8f:c6:9d:70:18:44:ab:32:d4:a7:
                    c0:72:aa:4d:c1:f6:81:a8:4f:e6:32:e2:1d:50:18:
                    32:b0:90:7c:e4:0c:06:fe:42:47:b0:dc:20:09:2b:
                    8e:71:2f:94:f3:53:e6:80:d1:c4:b9:7c:df:fd:09:
                    31:05:3f:f1:f0:28:7a:c9:23:86:76:a7:38:f7:e9:
                    0c:0d:ce:0c:09:8b:b0:18:2f:64:b5:41:7e:d8:1e:
                    89:fe:eb:f1:f0:17:e0:e0:d3:35:88:b9:d9:d5:fa:
                    19:73:e9:6d:aa:eb:78:6f:09:a9:f8:6b:13:dd:bd:
                    f1:b8:7a:ac:db:1c:5d:d9:99:0e:38:71:b0:9e:40:
                    8c:75:42:c5:35:78:75:a0:3a:c4:58:83:d9:b8:cc:
                    88:92:96:e7:49:2e:10:64:a2:19:d2:78:91:16:1e:
                    36:86:54:f7:fe:e7:86:2e:3c:e2:a5:52:c3:9a:55:
                    e3:66:81:c2:38:9e:01:23:f5:37:72:3c:37:6b:be:
                    3a:72:6e:e8:e5:78:eb:62:38:c4:e2:94:08:28:fb:
                    c4:53:f0:46:1d:49:8c:6a:aa:e3:2b:86:85:0a:89:
                    a3:16:ef:d1:73:8e:7c:3f:65:04:5d:09:4c:92:8d:
                    a4:51:60:c3:54:2e:8d:b8:37:be:73:86:33:83:9a:
                    a0:bb:c7:ac:43:0e:01:63:54:a4:35:66:05:da:73:
                    8d:72:57:7a:48:61:13:aa:d9:64:b3:cd:5a:a2:db:
                    a3:41:ed:ac:25:d6:4a:db:6f:bd:6a:30:46:4d:80:
                    a9:56:b1:13:b4:48:b2:30:0c:d3:61:35:8b:ce:06:
                    13:bc:21:38:39:48:5e:cf:28:86:d4:b3:1a:9f:eb:
                    c4:f2:69:c9:27:31:d6:77:38:23:8f:a2:b7:d1:ea:
                    a2:10:aa:d8:fc:0f:4f:58:e1:38:b2:8c:72:6a:75:
                    0b:00:89:82:4a:6a:ab:8f:2b:c4:cc:99:9f:fd:ac:
                    af:09:d5
                Exponent: 65537 (0x10001)
        X509v3 extensions:
            X509v3 Basic Constraints: 
                CA:FALSE
            X509v3 Key Usage: 
                Digital Signature, Key Encipherment
            X509v3 Subject Alternative Name: 
                DNS:service_admin, DNS:localhost
            X509v3 Subject Key Identifier: 
                B5:9D:CF:6B:3E:0E:81:88:99:05:E8:28:EC:4B:96:D2:9F:23:CC:BC
            X509v3 Authority Key Identifier: 
                0E:82:7D:58:99:9F:84:F3:42:F2:33:0B:AC:A2:1F:F3:2F:40:EF:5B
    Signature Algorithm: sha256WithRSAEncryption
    Signature Value:
        48:b0:b1:82:a3:8b:04:e9:0c:ff:a0:b6:19:9d:65:fa:53:d0:
        cc:1e:3e:47:9d:8e:74:28:cb:41:98:5c:8e:59:64:63:a4:b2:
        8a:7b:52:83:2c:c2:15:70:c9:a2:10:66:28:9d:67:b0:99:60:
        dd:56:61:bb:79:eb:ee:b4:2b:d9:e5:e1:85:b6:e6:47:cc:54:
        6a:5a:f2:a6:c3:f6:96:70:30:b7:63:0f:5d:f6:6f:c3:68:cf:
        96:aa:80:d9:eb:9d:13:b9:69:30:38:33:54:b4:0a:65:92:0c:
        99:b6:e8:5d:52:c3:36:f5:13:94:8b:bc:82:3f:5f:34:c5:ea:
        d3:28:50:f4:de:de:15:b5:9b:a3:28:ea:02:e0:0d:a7:c0:96:
        fd:02:4a:f3:e6:d8:a8:55:37:6e:a4:83:6b:c0:70:75:f1:10:
        14:88:84:b9:5d:c5:76:79:67:4d:9d:0d:0e:ae:d2:ab:33:f0:
        0f:59:c5:25:b0:5e:12:16:08:c5:d3:f1:4b:49:c1:00:d8:52:
        db:7a:17:e2:e1:71:a4:8e:d5:e8:c2:ce:e5:96:a9:23:61:ab:
        43:d7:31:6c:92:58:3d:7b:8d:c4:32:fd:ed:15:a1:e4:3f:d7:
        27:77:8e:54:bf:06:ac:c9:38:63:8f:7a:28:0c:d0:28:6e:80:
        b8:7b:d1:54:b0:15:53:0f:f4:87:48:77:7d:5c:9b:65:dd:8a:
        bc:fb:c5:6f:84:f2:88:fb:d9:91:a8:8e:cb:16:60:e3:10:03:
        a2:66:8b:f0:4f:c0:c5:1e:7f:15:1a:f2:d1:5e:37:6c:4a:b7:
        38:f3:6c:96:2f:42:ba:a9:4e:f2:5a:be:bb:16:7c:6f:ba:99:
        98:59:fd:b6:ef:75:9e:71:5b:03:53:22:1a:03:60:7d:e4:bf:
        fc:33:7a:d7:4a:47:aa:48:29:e2:f1:ec:7c:ca:1e:d9:ca:68:
        9e:c9:78:a4:c2:42:7e:c4:38:dc:ab:75:6c:e7:78:3c:0f:fe:
        f0:fa:7b:98:26:b1:4b:64:67:be:8e:66:96:62:fe:b0:15:a9:
        b1:8c:05:b5:61:32:7e:5a:9a:27:97:a4:b1:2f:08:4b:fd:52:
        dd:1e:11:ac:d4:b4:1e:e6:1a:28:6e:4f:6e:16:cc:48:b9:bd:
        6d:b7:12:36:6a:29:7f:7c:a7:d8:5d:9a:66:2e:c2:0c:a9:07:
        01:10:d6:07:c1:f7:0b:ce:3f:b8:3e:f7:f0:b9:fd:42:33:8f:
        52:f3:ad:3c:62:d4:cf:12:08:eb:5e:48:08:67:88:94:f7:e9:
        b4:1e:aa:dd:0f:af:76:94:9e:be:71:56:3d:58:a1:9c:43:f6:
        35:82:5e:87:06:fd:4c:72
-----BEGIN CERTIFICATE-----
MIIF2TCCA8GgAwIBAgIBAjANBgkqhkiG9w0BAQsFADBvMQswCQYDVQQGEwJJVDEQ
MA4GA1UECAwHVHVzY2FueTENMAsGA1UEBwwEUGlzYTEWMBQGA1UECgwNR2FjaGFB
bmRHYW1lczESMBAGA1UECwwJU2VydmljZUNBMRMwEQYDVQQDDApTZXJ2aWNlIENB
MB4XDTI0MTIwNTExMjAwMFoXDTI3MTIwNTExMjAwMFowcDELMAkGA1UEBhMCSVQx
EDAOBgNVBAgMB1R1c2NhbnkxDTALBgNVBAcMBFBpc2ExFjAUBgNVBAoMDUdhY2hh
QW5kR2FtZXMxEDAOBgNVBAsMB0RldmVsb3AxFjAUBgNVBAMMDXNlcnZpY2VfYWRt
aW4wggIiMA0GCSqGSIb3DQEBAQUAA4ICDwAwggIKAoICAQCamRgTqI5N4kcf6z5r
Q3E1PilstSY+RiDiaxYzJzS5VzxdVVO38SaUzYTmp7BfR+7SKLdDlE75Xz/AZOdR
50Oytkhw2BFh6VkKyjfEdgX408hjINl5V+fzRNeN5qxkS8gGWzoq92SiSGPpEygh
eYC8ZdOokh6ilxdHoTaHnqNbwBPykfMVR+mqMTzXj8adcBhEqzLUp8Byqk3B9oGo
T+Yy4h1QGDKwkHzkDAb+Qkew3CAJK45xL5TzU+aA0cS5fN/9CTEFP/HwKHrJI4Z2
pzj36QwNzgwJi7AYL2S1QX7YHon+6/HwF+Dg0zWIudnV+hlz6W2q63hvCan4axPd
vfG4eqzbHF3ZmQ44cbCeQIx1QsU1eHWgOsRYg9m4zIiSludJLhBkohnSeJEWHjaG
VPf+54YuPOKlUsOaVeNmgcI4ngEj9TdyPDdrvjpybujleOtiOMTilAgo+8RT8EYd
SYxqquMrhoUKiaMW79Fzjnw/ZQRdCUySjaRRYMNULo24N75zhjODmqC7x6xDDgFj
VKQ1ZgXac41yV3pIYROq2WSzzVqi26NB7awl1krbb71qMEZNgKlWsRO0SLIwDNNh
NYvOBhO8ITg5SF7PKIbUsxqf68TyacknMdZ3OCOPorfR6qIQqtj8D09Y4TiyjHJq
dQsAiYJKaquPK8TMmZ/9rK8J1QIDAQABo38wfTAJBgNVHRMEAjAAMAsGA1UdDwQE
AwIFoDAjBgNVHREEHDAagg1zZXJ2aWNlX2FkbWlugglsb2NhbGhvc3QwHQYDVR0O
BBYEFLWdz2s+DoGImQXoKOxLltKfI8y8MB8GA1UdIwQYMBaAFA6CfViZn4TzQvIz
C6yiH/MvQO9bMA0GCSqGSIb3DQEBCwUAA4ICAQBIsLGCo4sE6Qz/oLYZnWX6U9DM
Hj5HnY50KMtBmFyOWWRjpLKKe1KDLMIVcMmiEGYonWewmWDdVmG7eevutCvZ5eGF
tuZHzFRqWvKmw/aWcDC3Yw9d9m/DaM+WqoDZ650TuWkwODNUtAplkgyZtuhdUsM2
9ROUi7yCP180xerTKFD03t4VtZujKOoC4A2nwJb9Akrz5tioVTdupINrwHB18RAU
iIS5XcV2eWdNnQ0OrtKrM/APWcUlsF4SFgjF0/FLScEA2FLbehfi4XGkjtXows7l
lqkjYatD1zFsklg9e43EMv3tFaHkP9cnd45UvwasyThjj3ooDNAoboC4e9FUsBVT
D/SHSHd9XJtl3Yq8+8VvhPKI+9mRqI7LFmDjEAOiZovwT8DFHn8VGvLRXjdsSrc4
82yWL0K6qU7yWr67FnxvupmYWf2273WecVsDUyIaA2B95L/8M3rXSkeqSCni8ex8
yh7ZymieyXikwkJ+xDjcq3Vs53g8D/7w+nuYJrFLZGe+jmaWYv6wFamxjAW1YTJ+
Wponl6SxLwhL/VLdHhGs1LQe5hoobk9uFsxIub1ttxI2ail/fKfYXZpmLsIMqQcB
ENYHwfcLzj+4Pvfwuf1CM49S8608YtTPEgjrXkgIZ4iU9+m0HqrdD692lJ6+cVY9
WKGcQ/Y1gl6HBv1Mcg==
-----END CERTIFICATE-----
