Certificate:
    Data:
        Version: 3 (0x2)
        Serial Number: 10 (0xa)
        Signature Algorithm: sha256WithRSAEncryption
        Issuer: C=IT, ST=Tuscany, L=Pisa, O=GachaAndGames, OU=DbCA, CN=Db CA
        Validity
            Not Before: Dec  5 16:00:39 2024 GMT
            Not After : Dec  5 16:00:39 2027 GMT
        Subject: C=IT, ST=Tuscany, L=Pisa, O=GachaAndGames, OU=Develop, CN=service_feedback_db_primary
        Subject Public Key Info:
            Public Key Algorithm: rsaEncryption
                Public-Key: (4096 bit)
                Modulus:
                    00:bb:3b:66:c7:90:50:32:cf:d6:0a:3e:d8:af:2a:
                    06:b3:68:eb:05:87:af:d9:a3:24:98:6c:bb:c5:1a:
                    51:a7:d4:02:47:68:05:fd:e1:c1:4d:a9:2d:f1:b4:
                    ee:3a:25:8d:f3:81:2b:98:12:a4:8c:2e:a5:88:9b:
                    a7:90:b1:40:aa:4e:25:93:3c:b5:26:83:4b:51:04:
                    ad:86:ec:72:48:fa:a4:c4:35:bb:c0:c1:aa:d7:97:
                    ff:19:7c:c4:8b:ed:ca:e8:14:70:b9:62:c5:19:b7:
                    f9:87:11:ea:a5:2c:6d:28:fa:35:29:31:fb:1a:58:
                    a9:87:d3:6e:6a:96:4e:d8:ed:26:c7:39:8d:35:67:
                    5a:5f:0a:1b:f9:96:88:09:b1:19:46:76:0b:aa:7b:
                    e9:ff:07:46:6b:87:7c:c2:9c:55:de:82:9f:d2:ec:
                    dd:f5:68:89:5a:64:96:cc:6b:84:c3:f6:22:98:a6:
                    f7:e3:1e:c2:96:4d:f6:06:d2:3a:51:a4:9b:aa:67:
                    2b:37:56:fa:06:bb:87:36:38:bb:4f:e0:0c:c9:7c:
                    42:f0:04:0c:db:21:df:5c:10:1e:94:1d:28:c5:9e:
                    14:85:e6:07:fa:e8:8a:84:6c:14:60:67:0e:3f:77:
                    a9:bd:7e:6c:8e:ea:d1:30:dc:42:cc:18:e7:e1:21:
                    3d:d0:7a:44:dc:8b:36:5b:b9:2a:76:ba:96:6c:c0:
                    c0:b6:c8:e8:9a:36:29:ff:3a:13:bf:58:22:51:bc:
                    fb:6b:fa:da:17:b6:6e:4c:d5:4a:d3:5a:d7:6b:9e:
                    42:98:c4:8c:45:f5:91:90:88:c6:f5:9d:65:cd:a6:
                    47:41:51:9b:e7:17:5c:fd:bc:3b:68:a7:be:18:01:
                    59:a5:c4:0e:5d:4c:d9:dd:aa:17:f3:72:2c:84:57:
                    33:9d:1e:35:e6:2a:75:23:d7:b9:56:bd:e0:9d:ef:
                    a7:2e:a9:c8:c0:d1:f0:b5:c5:d9:65:7d:49:a2:c3:
                    38:ff:98:7b:b5:99:e5:54:ed:e7:f6:8a:d2:cb:11:
                    e4:0b:02:8b:f5:74:46:93:ad:31:24:71:f2:91:55:
                    25:5f:2c:5d:a9:f4:7b:1d:10:83:68:d3:ca:d7:69:
                    10:25:9e:92:58:99:42:74:d4:c1:8d:a6:07:0d:e9:
                    0b:44:ae:3c:f0:2f:29:d1:08:25:4c:e9:aa:ac:5d:
                    95:7b:58:ec:25:d4:0f:97:bd:f3:69:13:02:c9:03:
                    81:08:97:22:97:e0:2a:05:bd:9d:ae:1f:fb:8f:84:
                    8c:69:5d:94:f5:4d:3d:18:78:78:24:6d:c9:30:ed:
                    fb:ab:23:49:ae:07:07:07:93:5d:db:66:65:59:fc:
                    44:bc:b9
                Exponent: 65537 (0x10001)
        X509v3 extensions:
            X509v3 Basic Constraints: 
                CA:FALSE
            X509v3 Key Usage: 
                Digital Signature, Key Encipherment
            X509v3 Subject Alternative Name: 
                DNS:localhost
            X509v3 Subject Key Identifier: 
                D4:0A:CD:F7:29:AB:92:04:9B:FA:7B:48:BC:6B:9F:EE:2A:63:CC:46
            X509v3 Authority Key Identifier: 
                3F:87:19:0A:2D:03:0B:BD:2A:F1:04:90:64:5E:31:7C:1E:5D:93:80
    Signature Algorithm: sha256WithRSAEncryption
    Signature Value:
        a4:4a:49:dd:0c:50:87:e3:29:e2:c5:3a:b2:df:b8:ec:e6:08:
        44:10:33:76:e7:8b:92:0b:ca:a8:e5:9c:1d:c5:cb:39:a3:b0:
        3a:b0:a8:82:89:28:ab:75:fe:40:c1:90:6c:86:bb:43:bd:94:
        67:b8:bf:5d:03:97:1e:09:73:07:3e:8d:ec:26:8e:68:d1:bb:
        5f:59:03:ce:d1:7a:31:af:d8:7e:97:8c:25:ed:ba:db:bd:ca:
        6d:c0:8c:67:d2:5a:93:e4:db:2a:0d:10:88:93:d9:97:76:54:
        2f:4d:d9:86:92:27:7f:4e:64:76:fa:2e:b2:2f:0b:72:f7:66:
        c5:ef:01:97:ae:1b:83:91:d7:ff:5e:8b:13:69:98:78:94:58:
        fd:3c:1a:94:5e:b6:1f:43:c9:66:4d:64:ac:d6:bc:02:e1:79:
        dd:24:b0:11:7c:4b:69:5d:f3:27:72:5f:2e:6d:34:a6:51:e0:
        b0:6a:33:df:fc:9d:5e:d7:96:ca:a0:c9:1b:c5:33:7e:40:4a:
        87:13:dc:e0:81:90:e7:62:4c:ac:3d:03:16:5d:1a:0b:1e:48:
        fc:7c:02:58:cb:08:a1:ac:0c:e3:3e:cf:ba:50:3c:3c:6b:58:
        11:6e:9b:45:58:90:92:97:24:c5:56:db:94:45:7c:f1:61:33:
        76:e3:2a:ed:2e:95:31:46:5e:4b:db:5f:ac:84:ee:29:66:a8:
        e6:23:39:31:83:bc:74:75:fe:61:18:44:dc:fb:bc:36:f6:87:
        f7:60:a8:89:0e:eb:e7:e4:29:72:4c:f3:ed:22:27:e2:f2:c8:
        f8:73:40:9c:c4:a9:3e:ec:45:5c:12:72:c9:66:46:58:be:e7:
        19:0c:2c:88:08:cc:e8:f7:3d:45:c7:94:64:f2:e4:c8:61:4c:
        67:19:c2:b6:1e:fc:90:57:97:66:b6:bf:30:19:10:ae:e0:50:
        0d:23:3e:c3:92:c1:54:5f:d4:b5:ce:47:24:e1:08:f2:6d:36:
        2c:46:9f:a7:21:4b:b9:94:fa:80:c3:39:80:29:73:a5:7b:08:
        3a:b6:17:4f:7b:de:d8:06:0b:da:70:19:7e:9e:71:c2:cc:29:
        3a:99:a3:2d:bf:53:2c:05:ac:c5:db:96:ad:c7:07:e0:fa:54:
        92:fa:22:28:f2:f9:09:f7:e7:f2:6a:55:e2:94:50:89:49:f5:
        f4:71:ca:18:4a:6e:8b:a0:4b:28:82:38:7c:76:5d:96:04:bf:
        e7:a8:b1:3e:03:1b:9c:47:c5:b8:e5:35:b4:a6:6a:b7:b7:05:
        29:90:fa:d1:59:e6:5a:78:35:f6:8f:64:b8:43:5a:ee:78:3b:
        fc:f7:c6:8f:96:ff:17:8e
-----BEGIN CERTIFICATE-----
MIIFzjCCA7agAwIBAgIBCjANBgkqhkiG9w0BAQsFADBlMQswCQYDVQQGEwJJVDEQ
MA4GA1UECAwHVHVzY2FueTENMAsGA1UEBwwEUGlzYTEWMBQGA1UECgwNR2FjaGFB
bmRHYW1lczENMAsGA1UECwwERGJDQTEOMAwGA1UEAwwFRGIgQ0EwHhcNMjQxMjA1
MTYwMDM5WhcNMjcxMjA1MTYwMDM5WjB+MQswCQYDVQQGEwJJVDEQMA4GA1UECAwH
VHVzY2FueTENMAsGA1UEBwwEUGlzYTEWMBQGA1UECgwNR2FjaGFBbmRHYW1lczEQ
MA4GA1UECwwHRGV2ZWxvcDEkMCIGA1UEAwwbc2VydmljZV9mZWVkYmFja19kYl9w
cmltYXJ5MIICIjANBgkqhkiG9w0BAQEFAAOCAg8AMIICCgKCAgEAuztmx5BQMs/W
Cj7YryoGs2jrBYev2aMkmGy7xRpRp9QCR2gF/eHBTakt8bTuOiWN84ErmBKkjC6l
iJunkLFAqk4lkzy1JoNLUQSthuxySPqkxDW7wMGq15f/GXzEi+3K6BRwuWLFGbf5
hxHqpSxtKPo1KTH7Gliph9NuapZO2O0mxzmNNWdaXwob+ZaICbEZRnYLqnvp/wdG
a4d8wpxV3oKf0uzd9WiJWmSWzGuEw/YimKb34x7Clk32BtI6UaSbqmcrN1b6BruH
Nji7T+AMyXxC8AQM2yHfXBAelB0oxZ4UheYH+uiKhGwUYGcOP3epvX5sjurRMNxC
zBjn4SE90HpE3Is2W7kqdrqWbMDAtsjomjYp/zoTv1giUbz7a/raF7ZuTNVK01rX
a55CmMSMRfWRkIjG9Z1lzaZHQVGb5xdc/bw7aKe+GAFZpcQOXUzZ3aoX83IshFcz
nR415ip1I9e5Vr3gne+nLqnIwNHwtcXZZX1JosM4/5h7tZnlVO3n9orSyxHkCwKL
9XRGk60xJHHykVUlXyxdqfR7HRCDaNPK12kQJZ6SWJlCdNTBjaYHDekLRK488C8p
0QglTOmqrF2Ve1jsJdQPl73zaRMCyQOBCJcil+AqBb2drh/7j4SMaV2U9U09GHh4
JG3JMO37qyNJrgcHB5Nd22ZlWfxEvLkCAwEAAaNwMG4wCQYDVR0TBAIwADALBgNV
HQ8EBAMCBaAwFAYDVR0RBA0wC4IJbG9jYWxob3N0MB0GA1UdDgQWBBTUCs33KauS
BJv6e0i8a5/uKmPMRjAfBgNVHSMEGDAWgBQ/hxkKLQMLvSrxBJBkXjF8Hl2TgDAN
BgkqhkiG9w0BAQsFAAOCAgEApEpJ3QxQh+Mp4sU6st+47OYIRBAzdueLkgvKqOWc
HcXLOaOwOrCogokoq3X+QMGQbIa7Q72UZ7i/XQOXHglzBz6N7CaOaNG7X1kDztF6
Ma/YfpeMJe26273KbcCMZ9Jak+TbKg0QiJPZl3ZUL03ZhpInf05kdvousi8Lcvdm
xe8Bl64bg5HX/16LE2mYeJRY/TwalF62H0PJZk1krNa8AuF53SSwEXxLaV3zJ3Jf
Lm00plHgsGoz3/ydXteWyqDJG8UzfkBKhxPc4IGQ52JMrD0DFl0aCx5I/HwCWMsI
oawM4z7PulA8PGtYEW6bRViQkpckxVbblEV88WEzduMq7S6VMUZeS9tfrITuKWao
5iM5MYO8dHX+YRhE3Pu8NvaH92CoiQ7r5+Qpckzz7SIn4vLI+HNAnMSpPuxFXBJy
yWZGWL7nGQwsiAjM6Pc9RceUZPLkyGFMZxnCth78kFeXZra/MBkQruBQDSM+w5LB
VF/Utc5HJOEI8m02LEafpyFLuZT6gMM5gClzpXsIOrYXT3ve2AYL2nAZfp5xwswp
OpmjLb9TLAWsxduWrccH4PpUkvoiKPL5Cffn8mpV4pRQiUn19HHKGEpui6BLKII4
fHZdlgS/56ixPgMbnEfFuOU1tKZqt7cFKZD60VnmWng19o9kuENa7ng7/PfGj5b/
F44=
-----END CERTIFICATE-----
