Certificate:
    Data:
        Version: 3 (0x2)
        Serial Number: 1 (0x1)
        Signature Algorithm: sha256WithRSAEncryption
        Issuer: C=IT, ST=Tuscany, L=Pisa, O=GachaAndGames, OU=CdnCA, CN=Cdn CA
        Validity
            Not Before: Dec  5 02:12:57 2024 GMT
            Not After : Dec  5 02:12:57 2027 GMT
        Subject: C=IT, ST=Tuscany, L=Pisa, O=GachaAndGames, OU=Develop, CN=cdn
        Subject Public Key Info:
            Public Key Algorithm: rsaEncryption
                Public-Key: (4096 bit)
                Modulus:
                    00:b9:6d:2c:40:12:af:99:45:4d:51:8e:b9:04:f4:
                    64:c3:d7:de:02:71:c4:60:53:2b:72:20:e2:80:d3:
                    8a:bf:27:34:dc:fb:52:1c:e0:3e:95:7b:bb:e6:93:
                    93:0a:f9:d4:19:13:cd:b1:52:8b:0c:43:84:7e:d1:
                    ee:13:ea:04:f2:13:5d:d7:69:10:3e:96:50:8f:c9:
                    c3:4c:c3:a2:b9:5d:1c:18:d5:6a:2d:b5:1d:a6:f1:
                    df:83:24:9d:da:b3:64:c6:e9:c2:52:3d:5c:d6:d2:
                    41:b4:9d:01:fc:ce:ce:5a:cb:75:37:c1:ba:87:47:
                    98:18:1e:1f:ff:b1:84:e7:cf:e2:d0:77:0b:37:d9:
                    af:06:64:f7:80:f9:ee:e6:37:5a:00:62:2d:5c:64:
                    3a:a1:4c:ba:90:ee:4c:13:0f:b6:4d:2f:1d:49:cd:
                    77:81:a8:73:60:0e:f5:06:2a:08:53:f9:6d:66:0e:
                    25:ff:21:c7:f6:13:8f:3a:09:1e:71:2f:b0:2c:80:
                    50:81:75:21:c3:73:7c:0e:8e:3b:63:b8:90:ae:1f:
                    f3:03:40:a8:29:61:d4:14:70:47:a5:67:ba:9a:5f:
                    d5:c5:f7:9f:83:4a:17:49:df:22:38:26:74:51:0f:
                    04:5e:36:f2:ac:49:a0:9b:7f:e5:92:ae:18:0f:28:
                    9b:5c:ca:d3:fd:18:16:c9:da:17:83:85:d6:1c:eb:
                    f2:aa:26:d7:02:eb:19:fe:c5:46:37:51:9f:aa:f8:
                    7b:71:35:2e:c2:5e:91:e8:01:d1:01:22:3b:44:b8:
                    56:42:a3:83:53:0c:73:39:95:b3:88:87:4e:2f:a7:
                    f4:3e:2c:22:2f:f6:51:78:7c:5a:a0:f5:56:24:c8:
                    37:b1:6e:44:d9:3c:37:84:54:a4:34:eb:d4:43:9e:
                    e1:78:25:a4:59:c9:00:ea:a6:18:c2:32:98:38:f2:
                    0b:66:8d:a9:26:d3:ef:3d:d6:d4:96:a4:a4:76:6c:
                    c9:79:6d:20:a7:3a:78:38:fe:51:88:2b:31:6d:3f:
                    3b:d1:3d:19:c3:0b:0c:d7:0b:4a:46:b3:55:c9:29:
                    b5:0e:c2:3f:ad:8f:18:0b:ff:ee:ba:f1:41:85:c3:
                    8d:25:5a:75:25:c2:a8:58:6b:df:e1:b1:01:35:f9:
                    36:79:47:04:e1:ab:6c:7d:77:c6:a1:fd:9c:5e:a9:
                    a6:de:28:57:61:a8:36:da:12:21:dc:c8:48:ad:b8:
                    c4:a3:11:5c:6c:60:06:57:13:55:72:c6:b0:38:3b:
                    c6:49:89:32:71:6a:5c:28:c1:33:03:86:63:05:d7:
                    d0:59:93:df:b8:4a:8a:47:43:70:25:5e:a5:91:b4:
                    8a:3c:2d
                Exponent: 65537 (0x10001)
        X509v3 extensions:
            X509v3 Basic Constraints: 
                CA:FALSE
            X509v3 Key Usage: 
                Digital Signature, Key Encipherment
            X509v3 Subject Alternative Name: 
                DNS:cdn
            X509v3 Subject Key Identifier: 
                DF:FD:CF:D7:71:B5:86:7E:93:4D:8D:73:74:8C:4C:96:00:94:6A:84
            X509v3 Authority Key Identifier: 
                35:18:86:A5:2E:52:18:97:3C:AE:B2:AD:E9:DA:67:33:A8:00:6D:D3
    Signature Algorithm: sha256WithRSAEncryption
    Signature Value:
        40:52:ef:05:00:44:60:08:d9:76:ae:c1:a9:b3:2c:a2:83:ae:
        12:eb:57:43:be:78:68:d9:ca:55:3b:a0:49:7c:fd:c9:16:e3:
        5c:98:4e:f0:33:22:8b:d2:67:e6:71:05:24:42:0e:ae:3e:76:
        ba:eb:ad:23:ff:90:6e:5e:2f:ec:66:ae:c8:7f:8e:f5:e2:9a:
        09:12:b2:00:ca:ad:39:77:17:a3:dc:55:af:55:18:8a:0d:99:
        72:6f:ff:51:42:29:4e:51:a4:c6:60:83:e7:d9:42:44:0c:89:
        9d:4b:45:a3:d0:fe:43:2b:3a:81:31:ff:7a:6f:84:4e:f5:44:
        0d:ba:68:2e:aa:dc:ef:09:59:0e:1e:9f:05:d9:fa:19:31:3f:
        43:db:fd:70:b5:5d:82:d1:d9:3e:d8:db:75:d7:a3:c9:4c:cc:
        6a:7c:66:33:db:c5:5b:ab:28:39:23:8f:86:e9:13:ca:20:88:
        0a:e0:62:0f:94:1d:6d:c8:91:d7:05:90:11:dd:99:0f:e4:84:
        8d:75:a7:e5:35:3f:66:aa:99:87:a8:b2:36:ad:c5:be:a0:6c:
        32:e2:66:06:31:68:52:3b:d6:11:3c:68:8f:85:90:7c:5b:e6:
        ab:d4:f8:00:9b:1f:e6:c9:c6:08:11:c7:8d:50:08:b0:3e:5b:
        71:68:b2:74:ba:ad:ed:b4:6c:56:40:a8:29:15:f8:c7:74:e8:
        79:c6:6e:4a:28:a0:1d:4c:6b:22:9d:11:45:b4:b6:6d:1e:99:
        f7:1f:46:21:62:0c:fb:28:7d:96:42:7a:0b:ed:d9:c5:37:fa:
        f3:06:f3:0c:7d:63:89:5f:b1:47:0b:39:94:94:6d:c4:65:fe:
        a6:08:40:18:c1:0f:1b:8f:f5:a7:a1:13:56:4e:ba:ab:10:ee:
        fc:cb:d3:bc:f3:12:85:99:ac:5a:bf:e7:b0:eb:47:ea:c9:09:
        96:bf:dc:2b:61:6b:46:9c:dd:9f:90:60:81:07:69:a3:cb:4a:
        bb:33:21:4c:6f:cf:ed:6e:79:24:7f:91:bf:36:5c:42:e1:0e:
        d3:68:c3:df:29:be:75:fd:56:91:c8:38:5c:99:7d:8d:f4:5c:
        ad:7b:0e:90:80:d6:a9:e0:76:6b:14:db:a1:e2:a2:2c:b7:0c:
        d8:ed:96:84:5f:8c:b9:38:bb:3f:b8:97:ad:9c:a2:c0:7e:05:
        e3:77:16:99:22:9b:fa:50:10:6f:75:c2:1c:bb:ac:e0:78:f5:
        39:83:b0:9c:4d:f5:e3:d2:79:97:72:f0:60:d3:e9:f5:c2:71:
        29:38:24:55:4c:3e:af:4d:eb:46:21:7e:a4:f3:e6:ab:9e:44:
        9e:18:9a:2b:f6:38:81:24
-----BEGIN CERTIFICATE-----
MIIFsjCCA5qgAwIBAgIBATANBgkqhkiG9w0BAQsFADBnMQswCQYDVQQGEwJJVDEQ
MA4GA1UECAwHVHVzY2FueTENMAsGA1UEBwwEUGlzYTEWMBQGA1UECgwNR2FjaGFB
bmRHYW1lczEOMAwGA1UECwwFQ2RuQ0ExDzANBgNVBAMMBkNkbiBDQTAeFw0yNDEy
MDUwMjEyNTdaFw0yNzEyMDUwMjEyNTdaMGYxCzAJBgNVBAYTAklUMRAwDgYDVQQI
DAdUdXNjYW55MQ0wCwYDVQQHDARQaXNhMRYwFAYDVQQKDA1HYWNoYUFuZEdhbWVz
MRAwDgYDVQQLDAdEZXZlbG9wMQwwCgYDVQQDDANjZG4wggIiMA0GCSqGSIb3DQEB
AQUAA4ICDwAwggIKAoICAQC5bSxAEq+ZRU1RjrkE9GTD194CccRgUytyIOKA04q/
JzTc+1Ic4D6Ve7vmk5MK+dQZE82xUosMQ4R+0e4T6gTyE13XaRA+llCPycNMw6K5
XRwY1WottR2m8d+DJJ3as2TG6cJSPVzW0kG0nQH8zs5ay3U3wbqHR5gYHh//sYTn
z+LQdws32a8GZPeA+e7mN1oAYi1cZDqhTLqQ7kwTD7ZNLx1JzXeBqHNgDvUGKghT
+W1mDiX/Icf2E486CR5xL7AsgFCBdSHDc3wOjjtjuJCuH/MDQKgpYdQUcEelZ7qa
X9XF95+DShdJ3yI4JnRRDwReNvKsSaCbf+WSrhgPKJtcytP9GBbJ2heDhdYc6/Kq
JtcC6xn+xUY3UZ+q+HtxNS7CXpHoAdEBIjtEuFZCo4NTDHM5lbOIh04vp/Q+LCIv
9lF4fFqg9VYkyDexbkTZPDeEVKQ069RDnuF4JaRZyQDqphjCMpg48gtmjakm0+89
1tSWpKR2bMl5bSCnOng4/lGIKzFtPzvRPRnDCwzXC0pGs1XJKbUOwj+tjxgL/+66
8UGFw40lWnUlwqhYa9/hsQE1+TZ5RwThq2x9d8ah/ZxeqabeKFdhqDbaEiHcyEit
uMSjEVxsYAZXE1VyxrA4O8ZJiTJxalwowTMDhmMF19BZk9+4SopHQ3AlXqWRtIo8
LQIDAQABo2owaDAJBgNVHRMEAjAAMAsGA1UdDwQEAwIFoDAOBgNVHREEBzAFggNj
ZG4wHQYDVR0OBBYEFN/9z9dxtYZ+k02Nc3SMTJYAlGqEMB8GA1UdIwQYMBaAFDUY
hqUuUhiXPK6yrenaZzOoAG3TMA0GCSqGSIb3DQEBCwUAA4ICAQBAUu8FAERgCNl2
rsGpsyyig64S61dDvnho2cpVO6BJfP3JFuNcmE7wMyKL0mfmcQUkQg6uPna6660j
/5BuXi/sZq7If4714poJErIAyq05dxej3FWvVRiKDZlyb/9RQilOUaTGYIPn2UJE
DImdS0Wj0P5DKzqBMf96b4RO9UQNumguqtzvCVkOHp8F2foZMT9D2/1wtV2C0dk+
2Nt116PJTMxqfGYz28Vbqyg5I4+G6RPKIIgK4GIPlB1tyJHXBZAR3ZkP5ISNdafl
NT9mqpmHqLI2rcW+oGwy4mYGMWhSO9YRPGiPhZB8W+ar1PgAmx/mycYIEceNUAiw
PltxaLJ0uq3ttGxWQKgpFfjHdOh5xm5KKKAdTGsinRFFtLZtHpn3H0YhYgz7KH2W
QnoL7dnFN/rzBvMMfWOJX7FHCzmUlG3EZf6mCEAYwQ8bj/WnoRNWTrqrEO78y9O8
8xKFmaxav+ew60fqyQmWv9wrYWtGnN2fkGCBB2mjy0q7MyFMb8/tbnkkf5G/NlxC
4Q7TaMPfKb51/VaRyDhcmX2N9Fytew6QgNap4HZrFNuh4qIstwzY7ZaEX4y5OLs/
uJetnKLAfgXjdxaZIpv6UBBvdcIcu6zgePU5g7CcTfXj0nmXcvBg0+n1wnEpOCRV
TD6vTetGIX6k8+arnkSeGJor9jiBJA==
-----END CERTIFICATE-----
