Certificate:
    Data:
        Version: 3 (0x2)
        Serial Number: 1 (0x1)
        Signature Algorithm: sha256WithRSAEncryption
        Issuer: C=IT, ST=Tuscany, L=Pisa, O=GachaAndGames, OU=apigwCA, CN=Apigw CA
        Validity
            Not Before: Dec  5 09:58:53 2024 GMT
            Not After : Dec  5 09:58:53 2027 GMT
        Subject: C=IT, ST=Tuscany, L=Pisa, O=GachaAndGames, OU=Develop, CN=api_gateway_public
        Subject Public Key Info:
            Public Key Algorithm: rsaEncryption
                Public-Key: (4096 bit)
                Modulus:
                    00:99:30:37:b6:3b:eb:11:db:53:fb:50:52:9f:d4:
                    18:b9:2f:0a:23:b3:83:4e:9a:29:be:96:4d:6a:b9:
                    a6:bf:de:7c:ec:96:8c:f6:86:ee:56:53:02:15:0a:
                    b9:1f:55:91:48:c2:f4:df:9b:90:95:41:15:32:99:
                    51:f9:a5:5f:79:f5:a8:fe:5a:8a:df:f7:0d:0d:3a:
                    13:fe:74:ef:82:37:32:dc:be:3c:63:74:8e:1e:78:
                    ce:61:50:bb:c7:7b:4a:62:f1:91:8d:6d:da:b6:57:
                    ac:86:ac:ca:3b:8b:e1:ec:d7:d6:86:fb:bc:32:df:
                    83:4a:08:e7:84:66:22:e5:50:f3:fd:ab:86:b3:24:
                    f1:38:44:b8:dd:40:b9:d5:74:6f:91:e2:ee:de:7c:
                    86:c5:45:0c:ba:67:17:16:7e:7f:3a:75:17:2d:b8:
                    0e:33:7d:8d:1b:49:13:fd:a7:f2:d7:b1:13:df:ed:
                    d5:c2:9b:b0:f4:80:7b:38:ed:1a:1b:ba:7f:88:64:
                    2d:87:ee:4c:02:5e:74:18:8e:d3:a5:da:44:e8:ce:
                    c3:32:0b:d1:e9:01:52:44:41:e3:93:fa:09:45:13:
                    d9:df:8e:27:61:02:2c:84:1f:fb:61:c7:9a:b3:cd:
                    aa:ad:64:fd:f5:9e:e9:61:af:81:c0:dc:4e:46:c1:
                    7b:6b:05:49:30:fb:06:88:8a:3b:e2:b6:bc:ba:e5:
                    cb:0c:5b:10:a0:8d:a7:ad:5f:11:78:f3:0f:15:a2:
                    d6:81:96:64:29:0d:28:b5:1a:60:1b:f1:59:b6:b8:
                    ff:7b:b3:e4:11:14:b7:6e:85:da:80:71:27:24:c8:
                    7a:24:98:f3:3c:13:6c:9c:b4:ae:75:8b:a6:52:ba:
                    90:0f:e9:be:db:7f:19:03:91:1a:63:6a:d6:eb:b9:
                    3a:39:ae:79:8f:d7:55:e9:a2:94:03:a9:69:60:ac:
                    05:a7:54:af:d6:71:7b:29:42:45:59:47:6c:9c:eb:
                    b2:a3:76:da:8c:21:72:b1:38:d8:77:1a:15:b2:f9:
                    99:5f:34:7c:3b:de:c6:96:4d:46:1f:54:cf:c3:3d:
                    7c:86:d6:d7:2f:d1:70:c1:a4:02:27:f9:94:37:17:
                    67:fb:2a:47:9f:17:98:49:5b:80:b1:68:16:8c:4b:
                    3f:8e:3b:64:8f:0b:3f:58:45:0b:89:d1:e6:12:a3:
                    71:d6:50:56:16:e4:6a:57:c5:cf:d7:e7:14:ec:d9:
                    ba:47:9d:ae:b6:b1:a4:53:9c:49:c1:47:13:19:ed:
                    4c:c1:34:8d:72:af:9a:ea:79:c5:c3:00:e7:90:f7:
                    16:bc:8a:c4:47:4f:7b:85:af:49:bd:aa:12:67:fd:
                    bb:e3:e3
                Exponent: 65537 (0x10001)
        X509v3 extensions:
            X509v3 Basic Constraints: 
                CA:FALSE
            X509v3 Key Usage: 
                Digital Signature, Key Encipherment
            X509v3 Subject Alternative Name: 
                DNS:localhost
            X509v3 Subject Key Identifier: 
                39:44:F0:C2:EA:AB:CF:F3:33:49:57:19:FF:BD:62:38:A1:DA:38:04
            X509v3 Authority Key Identifier: 
                DirName:/C=IT/ST=Tuscany/L=Pisa/O=GachaAndGames/OU=RootCA/CN=Root CA
                serial:60:4B:9B:79:E3:8F:BA:0C:C5:3A:59:59:7A:85:A4:5C:2A:D0:47:B4
    Signature Algorithm: sha256WithRSAEncryption
    Signature Value:
        88:87:ad:ff:16:37:6b:e9:63:f7:82:39:46:2f:69:87:33:24:
        af:cc:bb:a8:53:09:1e:f4:16:19:3e:81:70:27:51:34:7d:1c:
        b2:95:99:41:d8:3d:77:f2:05:b8:bd:b9:74:71:f6:97:46:25:
        17:84:d9:7c:61:f0:d8:74:8a:94:31:40:87:10:ee:67:7d:76:
        54:23:5f:c6:7d:aa:a4:55:84:9c:33:59:3e:30:4e:6e:ff:c6:
        df:d8:13:81:d2:8b:c8:5c:5b:e6:4a:8d:e8:53:6b:08:17:e6:
        db:aa:34:74:e3:76:d9:c9:02:aa:03:ea:05:d9:f8:90:fc:ed:
        e6:55:29:e6:ae:d1:c4:d2:77:4e:da:b3:9d:9e:fd:e6:75:a0:
        ad:b7:79:62:69:06:1c:ca:0d:06:1c:fa:d7:dd:20:45:77:77:
        64:ee:0d:6a:ad:6d:86:42:9c:13:ce:f2:91:5b:89:f2:9e:ff:
        6f:27:1c:d8:31:e8:b5:05:b3:04:2d:f1:83:10:89:6a:75:ba:
        e7:89:90:f7:dd:7b:a1:80:4e:da:d9:fa:d2:c3:25:06:24:95:
        54:19:c3:8e:e9:3c:45:a8:81:af:ff:17:c5:32:38:ab:b7:b3:
        b1:44:67:78:2b:24:36:41:d7:27:18:c5:0a:7f:3e:f8:69:c3:
        53:37:fe:18:a0:89:6a:e7:c2:30:a8:05:11:45:f5:a4:a5:3c:
        d6:5d:46:84:d1:9f:be:36:dd:46:fe:7e:b5:30:5d:f3:cd:e0:
        4b:b8:30:d5:b4:0a:e6:f0:fa:f5:74:c7:3c:7c:7e:b3:84:bb:
        03:70:86:09:f6:b0:4f:26:c3:e7:67:c5:c6:93:5d:3c:32:56:
        7a:37:10:27:79:97:63:a7:2b:02:f9:e5:dc:aa:ee:6c:be:b7:
        4f:e2:b2:3a:2d:b3:21:ca:ff:41:08:f7:79:04:ac:e2:c6:17:
        7a:1c:0c:6a:c9:22:c8:46:df:d2:cd:e8:c9:00:e1:33:de:f4:
        ab:9f:9c:97:4f:1d:8e:2c:0a:fb:a5:5c:5d:95:83:99:e7:50:
        8e:2b:c1:c8:6a:2b:86:34:56:e6:ca:e6:4a:0d:92:3a:22:f9:
        73:ed:6e:57:cb:32:6c:c2:b6:77:ea:af:28:d8:6a:ea:23:44:
        bc:99:6c:41:64:4d:db:05:4b:9b:8f:f8:87:f2:a4:62:ef:13:
        82:bf:95:4d:e6:e7:23:da:39:79:b0:81:9e:23:24:c7:2a:c7:
        9d:48:37:42:af:89:8f:08:6a:7f:f8:48:5e:d2:46:18:a9:79:
        ce:43:cc:c0:38:11:94:b4:5d:cc:bc:02:48:90:5b:e7:34:bc:
        50:e0:a0:80:64:1a:b5:42
-----BEGIN CERTIFICATE-----
MIIGPzCCBCegAwIBAgIBATANBgkqhkiG9w0BAQsFADBrMQswCQYDVQQGEwJJVDEQ
MA4GA1UECAwHVHVzY2FueTENMAsGA1UEBwwEUGlzYTEWMBQGA1UECgwNR2FjaGFB
bmRHYW1lczEQMA4GA1UECwwHYXBpZ3dDQTERMA8GA1UEAwwIQXBpZ3cgQ0EwHhcN
MjQxMjA1MDk1ODUzWhcNMjcxMjA1MDk1ODUzWjB1MQswCQYDVQQGEwJJVDEQMA4G
A1UECAwHVHVzY2FueTENMAsGA1UEBwwEUGlzYTEWMBQGA1UECgwNR2FjaGFBbmRH
YW1lczEQMA4GA1UECwwHRGV2ZWxvcDEbMBkGA1UEAwwSYXBpX2dhdGV3YXlfcHVi
bGljMIICIjANBgkqhkiG9w0BAQEFAAOCAg8AMIICCgKCAgEAmTA3tjvrEdtT+1BS
n9QYuS8KI7ODTpopvpZNarmmv9587JaM9obuVlMCFQq5H1WRSML035uQlUEVMplR
+aVfefWo/lqK3/cNDToT/nTvgjcy3L48Y3SOHnjOYVC7x3tKYvGRjW3atleshqzK
O4vh7NfWhvu8Mt+DSgjnhGYi5VDz/auGsyTxOES43UC51XRvkeLu3nyGxUUMumcX
Fn5/OnUXLbgOM32NG0kT/afy17ET3+3Vwpuw9IB7OO0aG7p/iGQth+5MAl50GI7T
pdpE6M7DMgvR6QFSREHjk/oJRRPZ344nYQIshB/7Yceas82qrWT99Z7pYa+BwNxO
RsF7awVJMPsGiIo74ra8uuXLDFsQoI2nrV8RePMPFaLWgZZkKQ0otRpgG/FZtrj/
e7PkERS3boXagHEnJMh6JJjzPBNsnLSudYumUrqQD+m+238ZA5EaY2rW67k6Oa55
j9dV6aKUA6lpYKwFp1Sv1nF7KUJFWUdsnOuyo3bajCFysTjYdxoVsvmZXzR8O97G
lk1GH1TPwz18htbXL9FwwaQCJ/mUNxdn+ypHnxeYSVuAsWgWjEs/jjtkjws/WEUL
idHmEqNx1lBWFuRqV8XP1+cU7Nm6R52utrGkU5xJwUcTGe1MwTSNcq+a6nnFwwDn
kPcWvIrER097ha9JvaoSZ/274+MCAwEAAaOB4zCB4DAJBgNVHRMEAjAAMAsGA1Ud
DwQEAwIFoDAUBgNVHREEDTALgglsb2NhbGhvc3QwHQYDVR0OBBYEFDlE8MLqq8/z
M0lXGf+9Yjih2jgEMIGQBgNVHSMEgYgwgYWhbaRrMGkxCzAJBgNVBAYTAklUMRAw
DgYDVQQIDAdUdXNjYW55MQ0wCwYDVQQHDARQaXNhMRYwFAYDVQQKDA1HYWNoYUFu
ZEdhbWVzMQ8wDQYDVQQLDAZSb290Q0ExEDAOBgNVBAMMB1Jvb3QgQ0GCFGBLm3nj
j7oMxTpZWXqFpFwq0Ee0MA0GCSqGSIb3DQEBCwUAA4ICAQCIh63/Fjdr6WP3gjlG
L2mHMySvzLuoUwke9BYZPoFwJ1E0fRyylZlB2D138gW4vbl0cfaXRiUXhNl8YfDY
dIqUMUCHEO5nfXZUI1/GfaqkVYScM1k+ME5u/8bf2BOB0ovIXFvmSo3oU2sIF+bb
qjR043bZyQKqA+oF2fiQ/O3mVSnmrtHE0ndO2rOdnv3mdaCtt3liaQYcyg0GHPrX
3SBFd3dk7g1qrW2GQpwTzvKRW4nynv9vJxzYMei1BbMELfGDEIlqdbrniZD33Xuh
gE7a2frSwyUGJJVUGcOO6TxFqIGv/xfFMjirt7OxRGd4KyQ2QdcnGMUKfz74acNT
N/4YoIlq58IwqAURRfWkpTzWXUaE0Z++Nt1G/n61MF3zzeBLuDDVtArm8Pr1dMc8
fH6zhLsDcIYJ9rBPJsPnZ8XGk108MlZ6NxAneZdjpysC+eXcqu5svrdP4rI6LbMh
yv9BCPd5BKzixhd6HAxqySLIRt/SzejJAOEz3vSrn5yXTx2OLAr7pVxdlYOZ51CO
K8HIaiuGNFbmyuZKDZI6Ivlz7W5XyzJswrZ36q8o2GrqI0S8mWxBZE3bBUubj/iH
8qRi7xOCv5VN5ucj2jl5sIGeIyTHKsedSDdCr4mPCGp/+Ehe0kYYqXnOQ8zAOBGU
tF3MvAJIkFvnNLxQ4KCAZBq1Qg==
-----END CERTIFICATE-----
