Certificate:
    Data:
        Version: 3 (0x2)
        Serial Number: 4 (0x4)
        Signature Algorithm: sha256WithRSAEncryption
        Issuer: C=IT, ST=Tuscany, L=Pisa, O=GachaAndGames, OU=ServiceCA, CN=Service CA
        Validity
            Not Before: Dec  5 11:21:38 2024 GMT
            Not After : Dec  5 11:21:38 2027 GMT
        Subject: C=IT, ST=Tuscany, L=Pisa, O=GachaAndGames, OU=Develop, CN=service_currency
        Subject Public Key Info:
            Public Key Algorithm: rsaEncryption
                Public-Key: (4096 bit)
                Modulus:
                    00:b4:2f:4f:43:a0:9d:dc:5c:d7:b8:dc:69:f7:a3:
                    59:26:e9:e8:1f:84:f0:2f:d9:f9:88:31:5f:cb:14:
                    1f:8c:31:d8:25:08:48:e2:a4:28:8e:75:71:8a:83:
                    68:c6:ce:43:fd:1d:7f:10:e5:5c:68:6e:8b:af:f2:
                    a0:fd:b5:6a:a1:91:1d:85:b7:01:9f:59:bd:cd:cb:
                    09:4a:c2:0d:b4:90:6b:03:b0:6a:d1:78:12:66:36:
                    75:f6:de:9f:5a:88:f7:a0:c3:5d:51:d6:47:31:f4:
                    88:53:3d:14:51:a9:4c:01:4a:dc:3e:5e:dc:60:6e:
                    3a:fc:2d:58:40:2d:5b:c1:28:aa:a8:c1:02:36:78:
                    f4:53:23:33:be:a2:d0:10:8c:2d:1a:72:b9:ec:93:
                    1c:8c:34:9a:1f:73:7c:e0:08:d8:8f:ca:b1:2c:bb:
                    3a:f6:d7:86:3b:35:2e:0b:78:2c:91:9b:95:34:d0:
                    e3:ec:49:14:5b:a3:39:67:a0:72:07:e2:7f:eb:a2:
                    fe:ca:6a:e6:0e:7a:a9:3b:c1:da:74:67:75:1c:47:
                    ee:35:e8:e2:9a:87:85:08:dc:55:ed:84:0c:9a:af:
                    a7:5f:9b:4e:91:6d:bc:de:5a:1e:6a:fd:92:d9:63:
                    e0:42:e3:a2:fa:0f:af:80:df:6e:22:75:b7:56:a2:
                    5c:26:34:7c:a5:ba:5c:0a:25:4c:15:d6:53:4d:52:
                    8e:26:53:67:35:fe:b8:00:c3:fc:7b:7f:14:2e:17:
                    e6:d6:07:00:6b:ef:dd:44:8e:39:f8:cf:ed:40:29:
                    3a:c4:93:d1:c8:43:bb:06:e7:ff:a8:67:dd:f9:01:
                    98:fa:aa:10:b2:0a:07:60:2a:9e:43:68:03:d4:f2:
                    eb:ec:02:ff:81:14:07:50:0d:91:ea:c6:55:3a:67:
                    f3:03:c9:83:cc:c6:8a:22:d1:14:04:12:de:08:3c:
                    3e:19:f3:14:d9:4e:56:05:60:db:47:1e:83:3b:dd:
                    fa:a3:2b:92:57:89:71:73:79:c8:b5:6f:02:49:59:
                    d6:fd:a1:34:17:f1:82:84:4b:0e:46:b5:e4:da:21:
                    ac:e7:f1:eb:e8:4d:63:26:ff:f7:c8:58:8f:0d:45:
                    1a:f0:57:96:66:a5:c6:a5:e2:b3:75:e7:79:de:72:
                    35:0a:dc:db:8e:3d:c5:5a:0c:a2:b9:17:0c:53:d5:
                    76:81:95:53:91:14:f8:67:14:3f:38:cd:34:bc:fc:
                    88:d2:f0:58:5d:22:a4:f0:72:b9:8e:18:8c:83:8a:
                    df:a1:27:58:c5:45:79:8c:c3:a3:e7:f9:c3:dd:d0:
                    74:2f:88:08:67:eb:4c:26:ad:84:88:35:c1:10:74:
                    1d:4c:21
                Exponent: 65537 (0x10001)
        X509v3 extensions:
            X509v3 Basic Constraints: 
                CA:FALSE
            X509v3 Key Usage: 
                Digital Signature, Key Encipherment
            X509v3 Subject Alternative Name: 
                DNS:service_currency, DNS:localhost
            X509v3 Subject Key Identifier: 
                57:A5:A5:52:CA:6B:67:B5:C7:84:FC:03:0F:36:E9:6D:00:00:7A:A2
            X509v3 Authority Key Identifier: 
                0E:82:7D:58:99:9F:84:F3:42:F2:33:0B:AC:A2:1F:F3:2F:40:EF:5B
    Signature Algorithm: sha256WithRSAEncryption
    Signature Value:
        32:6b:d2:ac:4e:a0:52:0d:09:1b:16:fe:eb:b5:71:de:d5:9e:
        84:b8:26:68:71:c9:a4:7f:6a:73:66:12:ab:6a:24:c1:29:99:
        8a:d3:f1:bf:5f:92:a9:a8:b8:c6:23:0e:2d:b6:81:0e:ed:a3:
        25:14:50:c6:0d:d9:1d:3a:38:45:ee:93:d6:69:f7:a0:a7:5c:
        0d:cf:a5:b4:c7:31:7c:fe:03:41:ce:51:aa:6d:bb:10:41:a8:
        98:49:fa:a4:7c:d2:71:9f:ae:13:a2:8b:0e:bf:81:59:cc:38:
        7c:ad:28:0e:83:04:dc:5e:f2:51:a8:10:41:29:68:b4:a5:e3:
        02:12:a7:c9:a8:2e:1d:97:31:0a:8d:6c:1e:ea:51:46:cb:ca:
        6a:67:91:4a:bb:80:5b:61:70:fc:18:69:d8:14:46:1a:d9:bd:
        f7:3b:12:cc:6f:8f:18:c0:1d:b6:35:51:5b:9c:fb:6b:1a:d5:
        58:c8:87:04:8a:1b:b2:99:bf:73:fc:fd:39:00:31:84:66:18:
        d0:27:86:e1:82:09:6a:bd:cd:1c:b1:ff:b0:38:e1:34:fa:69:
        1a:07:8b:67:e7:b3:88:6e:06:0f:f1:f0:2d:4a:04:9f:0e:d5:
        b5:ff:a7:70:51:04:b6:2a:e9:8f:8c:df:98:12:63:4f:b2:59:
        46:47:e2:51:9f:bf:a7:e6:5c:1a:a2:aa:ac:82:2e:e9:2c:00:
        17:7b:18:b1:ac:83:f7:22:39:46:f1:92:47:f6:3b:d6:6c:dd:
        0f:8c:fb:7d:69:c9:fd:40:ec:7d:53:27:07:f0:f0:b1:5f:39:
        a6:5e:35:d1:dc:59:1c:6b:4f:85:b1:d3:96:16:4c:f9:bd:74:
        60:83:a2:27:fd:db:db:ed:c0:b3:58:6b:78:0c:a6:e6:76:a4:
        de:7b:6c:83:e0:18:fd:97:e3:6e:89:5f:d8:6a:70:3b:36:38:
        55:ad:65:32:64:1f:6b:c2:3b:e5:2f:00:41:f9:d7:5e:94:d5:
        8e:ed:54:9a:ef:a9:39:59:08:4b:b9:27:4a:80:5e:90:09:1e:
        3b:54:3a:26:7c:83:c2:9b:e6:7c:bc:38:70:9b:af:6d:2f:e2:
        c5:51:da:50:fc:0c:4a:03:a0:b5:a6:ac:97:14:e1:b7:ab:83:
        1d:e9:de:2d:63:4a:c8:d8:f4:08:25:86:3c:cb:ad:f9:b2:3c:
        bf:f7:0c:a6:96:9b:16:7d:74:6b:f1:28:85:26:fc:61:9b:90:
        3a:b8:47:38:a6:ad:4a:bb:33:48:73:77:65:d3:48:07:23:29:
        d0:1e:42:5d:dd:25:23:c7:c5:8c:3e:58:20:60:88:27:77:d4:
        13:14:d7:45:f7:fb:3d:43
-----BEGIN CERTIFICATE-----
MIIF4TCCA8mgAwIBAgIBBDANBgkqhkiG9w0BAQsFADBvMQswCQYDVQQGEwJJVDEQ
MA4GA1UECAwHVHVzY2FueTENMAsGA1UEBwwEUGlzYTEWMBQGA1UECgwNR2FjaGFB
bmRHYW1lczESMBAGA1UECwwJU2VydmljZUNBMRMwEQYDVQQDDApTZXJ2aWNlIENB
MB4XDTI0MTIwNTExMjEzOFoXDTI3MTIwNTExMjEzOFowczELMAkGA1UEBhMCSVQx
EDAOBgNVBAgMB1R1c2NhbnkxDTALBgNVBAcMBFBpc2ExFjAUBgNVBAoMDUdhY2hh
QW5kR2FtZXMxEDAOBgNVBAsMB0RldmVsb3AxGTAXBgNVBAMMEHNlcnZpY2VfY3Vy
cmVuY3kwggIiMA0GCSqGSIb3DQEBAQUAA4ICDwAwggIKAoICAQC0L09DoJ3cXNe4
3Gn3o1km6egfhPAv2fmIMV/LFB+MMdglCEjipCiOdXGKg2jGzkP9HX8Q5Vxobouv
8qD9tWqhkR2FtwGfWb3NywlKwg20kGsDsGrReBJmNnX23p9aiPegw11R1kcx9IhT
PRRRqUwBStw+Xtxgbjr8LVhALVvBKKqowQI2ePRTIzO+otAQjC0acrnskxyMNJof
c3zgCNiPyrEsuzr214Y7NS4LeCyRm5U00OPsSRRbozlnoHIH4n/rov7KauYOeqk7
wdp0Z3UcR+416OKah4UI3FXthAyar6dfm06RbbzeWh5q/ZLZY+BC46L6D6+A324i
dbdWolwmNHylulwKJUwV1lNNUo4mU2c1/rgAw/x7fxQuF+bWBwBr791Ejjn4z+1A
KTrEk9HIQ7sG5/+oZ935AZj6qhCyCgdgKp5DaAPU8uvsAv+BFAdQDZHqxlU6Z/MD
yYPMxooi0RQEEt4IPD4Z8xTZTlYFYNtHHoM73fqjK5JXiXFzeci1bwJJWdb9oTQX
8YKESw5GteTaIazn8evoTWMm//fIWI8NRRrwV5Zmpcal4rN153necjUK3NuOPcVa
DKK5FwxT1XaBlVORFPhnFD84zTS8/IjS8FhdIqTwcrmOGIyDit+hJ1jFRXmMw6Pn
+cPd0HQviAhn60wmrYSINcEQdB1MIQIDAQABo4GDMIGAMAkGA1UdEwQCMAAwCwYD
VR0PBAQDAgWgMCYGA1UdEQQfMB2CEHNlcnZpY2VfY3VycmVuY3mCCWxvY2FsaG9z
dDAdBgNVHQ4EFgQUV6WlUsprZ7XHhPwDDzbpbQAAeqIwHwYDVR0jBBgwFoAUDoJ9
WJmfhPNC8jMLrKIf8y9A71swDQYJKoZIhvcNAQELBQADggIBADJr0qxOoFINCRsW
/uu1cd7VnoS4JmhxyaR/anNmEqtqJMEpmYrT8b9fkqmouMYjDi22gQ7toyUUUMYN
2R06OEXuk9Zp96CnXA3PpbTHMXz+A0HOUaptuxBBqJhJ+qR80nGfrhOiiw6/gVnM
OHytKA6DBNxe8lGoEEEpaLSl4wISp8moLh2XMQqNbB7qUUbLympnkUq7gFthcPwY
adgURhrZvfc7EsxvjxjAHbY1UVuc+2sa1VjIhwSKG7KZv3P8/TkAMYRmGNAnhuGC
CWq9zRyx/7A44TT6aRoHi2fns4huBg/x8C1KBJ8O1bX/p3BRBLYq6Y+M35gSY0+y
WUZH4lGfv6fmXBqiqqyCLuksABd7GLGsg/ciOUbxkkf2O9Zs3Q+M+31pyf1A7H1T
Jwfw8LFfOaZeNdHcWRxrT4Wx05YWTPm9dGCDoif929vtwLNYa3gMpuZ2pN57bIPg
GP2X426JX9hqcDs2OFWtZTJkH2vCO+UvAEH5116U1Y7tVJrvqTlZCEu5J0qAXpAJ
HjtUOiZ8g8Kb5ny8OHCbr20v4sVR2lD8DEoDoLWmrJcU4bergx3p3i1jSsjY9Agl
hjzLrfmyPL/3DKaWmxZ9dGvxKIUm/GGbkDq4RzimrUq7M0hzd2XTSAcjKdAeQl3d
JSPHxYw+WCBgiCd31BMU10X3+z1D
-----END CERTIFICATE-----
